(dp0
S'ref_point'
p1
(dp2
sS'rw_dict'
p3
(dp4
S'ctWRe_0p_ctBRe_0p_cHQ3_1p_cHt_0p_cHtbRe_0p_ctWIm_0p_ctBIm_1p_cHtbIm_0p'
p5
I28
sS'ctWRe_0p_ctBRe_2p_cHQ3_0p_cHt_0p_cHtbRe_0p_ctWIm_0p_ctBIm_0p_cHtbIm_0p'
p6
I17
sS'ctWRe_0p_ctBRe_1p_cHQ3_0p_cHt_0p_cHtbRe_0p_ctWIm_0p_ctBIm_1p_cHtbIm_0p'
p7
I22
sS'ctWRe_0p_ctBRe_0p_cHQ3_0p_cHt_0p_cHtbRe_1p_ctWIm_0p_ctBIm_1p_cHtbIm_0p'
p8
I37
sS'ctWRe_0p_ctBRe_1p_cHQ3_0p_cHt_1p_cHtbRe_0p_ctWIm_0p_ctBIm_0p_cHtbIm_0p'
p9
I19
sS'ctWRe_0p_ctBRe_1p_cHQ3_0p_cHt_0p_cHtbRe_0p_ctWIm_0p_ctBIm_0p_cHtbIm_1p'
p10
I23
sS'ctWRe_0p_ctBRe_0p_cHQ3_0p_cHt_1p_cHtbRe_0p_ctWIm_0p_ctBIm_0p_cHtbIm_0p'
p11
I4
sS'ctWRe_0p_ctBRe_0p_cHQ3_0p_cHt_0p_cHtbRe_0p_ctWIm_0p_ctBIm_0p_cHtbIm_0p'
p12
I0
sS'ctWRe_0p_ctBRe_0p_cHQ3_0p_cHt_0p_cHtbRe_2p_ctWIm_0p_ctBIm_0p_cHtbIm_0p'
p13
I35
sS'ctWRe_0p_ctBRe_0p_cHQ3_0p_cHt_1p_cHtbRe_0p_ctWIm_0p_ctBIm_1p_cHtbIm_0p'
p14
I33
sS'ctWRe_0p_ctBRe_0p_cHQ3_1p_cHt_0p_cHtbRe_0p_ctWIm_0p_ctBIm_0p_cHtbIm_0p'
p15
I3
sS'ctWRe_1p_ctBRe_0p_cHQ3_0p_cHt_0p_cHtbRe_0p_ctWIm_1p_ctBIm_0p_cHtbIm_0p'
p16
I14
sS'ctWRe_0p_ctBRe_0p_cHQ3_0p_cHt_0p_cHtbRe_0p_ctWIm_2p_ctBIm_0p_cHtbIm_0p'
p17
I39
sS'ctWRe_0p_ctBRe_0p_cHQ3_0p_cHt_0p_cHtbRe_0p_ctWIm_0p_ctBIm_1p_cHtbIm_1p'
p18
I43
sS'ctWRe_0p_ctBRe_0p_cHQ3_0p_cHt_0p_cHtbRe_0p_ctWIm_1p_ctBIm_0p_cHtbIm_1p'
p19
I41
sS'ctWRe_2p_ctBRe_0p_cHQ3_0p_cHt_0p_cHtbRe_0p_ctWIm_0p_ctBIm_0p_cHtbIm_0p'
p20
I9
sS'ctWRe_0p_ctBRe_0p_cHQ3_0p_cHt_1p_cHtbRe_0p_ctWIm_1p_ctBIm_0p_cHtbIm_0p'
p21
I32
sS'ctWRe_0p_ctBRe_0p_cHQ3_2p_cHt_0p_cHtbRe_0p_ctWIm_0p_ctBIm_0p_cHtbIm_0p'
p22
I24
sS'ctWRe_0p_ctBRe_0p_cHQ3_0p_cHt_0p_cHtbRe_1p_ctWIm_0p_ctBIm_0p_cHtbIm_1p'
p23
I38
sS'ctWRe_0p_ctBRe_1p_cHQ3_0p_cHt_0p_cHtbRe_1p_ctWIm_0p_ctBIm_0p_cHtbIm_0p'
p24
I20
sS'ctWRe_1p_ctBRe_0p_cHQ3_0p_cHt_0p_cHtbRe_0p_ctWIm_0p_ctBIm_0p_cHtbIm_0p'
p25
I1
sS'ctWRe_1p_ctBRe_0p_cHQ3_0p_cHt_1p_cHtbRe_0p_ctWIm_0p_ctBIm_0p_cHtbIm_0p'
p26
I12
sS'ctWRe_1p_ctBRe_0p_cHQ3_0p_cHt_0p_cHtbRe_0p_ctWIm_0p_ctBIm_1p_cHtbIm_0p'
p27
I15
sS'ctWRe_0p_ctBRe_1p_cHQ3_0p_cHt_0p_cHtbRe_0p_ctWIm_1p_ctBIm_0p_cHtbIm_0p'
p28
I21
sS'ctWRe_0p_ctBRe_0p_cHQ3_0p_cHt_1p_cHtbRe_1p_ctWIm_0p_ctBIm_0p_cHtbIm_0p'
p29
I31
sS'ctWRe_0p_ctBRe_0p_cHQ3_0p_cHt_1p_cHtbRe_0p_ctWIm_0p_ctBIm_0p_cHtbIm_1p'
p30
I34
sS'ctWRe_0p_ctBRe_0p_cHQ3_0p_cHt_2p_cHtbRe_0p_ctWIm_0p_ctBIm_0p_cHtbIm_0p'
p31
I30
sS'ctWRe_0p_ctBRe_1p_cHQ3_1p_cHt_0p_cHtbRe_0p_ctWIm_0p_ctBIm_0p_cHtbIm_0p'
p32
I18
sS'ctWRe_0p_ctBRe_1p_cHQ3_0p_cHt_0p_cHtbRe_0p_ctWIm_0p_ctBIm_0p_cHtbIm_0p'
p33
I2
sS'ctWRe_0p_ctBRe_0p_cHQ3_0p_cHt_0p_cHtbRe_1p_ctWIm_1p_ctBIm_0p_cHtbIm_0p'
p34
I36
sS'ctWRe_0p_ctBRe_0p_cHQ3_1p_cHt_0p_cHtbRe_1p_ctWIm_0p_ctBIm_0p_cHtbIm_0p'
p35
I26
sS'ctWRe_0p_ctBRe_0p_cHQ3_0p_cHt_0p_cHtbRe_1p_ctWIm_0p_ctBIm_0p_cHtbIm_0p'
p36
I5
sS'ctWRe_0p_ctBRe_0p_cHQ3_1p_cHt_0p_cHtbRe_0p_ctWIm_0p_ctBIm_0p_cHtbIm_1p'
p37
I29
sS'ctWRe_0p_ctBRe_0p_cHQ3_1p_cHt_1p_cHtbRe_0p_ctWIm_0p_ctBIm_0p_cHtbIm_0p'
p38
I25
sS'ctWRe_0p_ctBRe_0p_cHQ3_0p_cHt_0p_cHtbRe_0p_ctWIm_0p_ctBIm_1p_cHtbIm_0p'
p39
I7
sS'ctWRe_1p_ctBRe_0p_cHQ3_0p_cHt_0p_cHtbRe_1p_ctWIm_0p_ctBIm_0p_cHtbIm_0p'
p40
I13
sS'ctWRe_0p_ctBRe_0p_cHQ3_0p_cHt_0p_cHtbRe_0p_ctWIm_0p_ctBIm_0p_cHtbIm_1p'
p41
I8
sS'ctWRe_1p_ctBRe_0p_cHQ3_0p_cHt_0p_cHtbRe_0p_ctWIm_0p_ctBIm_0p_cHtbIm_1p'
p42
I16
sS'ctWRe_0p_ctBRe_0p_cHQ3_0p_cHt_0p_cHtbRe_0p_ctWIm_1p_ctBIm_0p_cHtbIm_0p'
p43
I6
sS'ctWRe_0p_ctBRe_0p_cHQ3_0p_cHt_0p_cHtbRe_0p_ctWIm_0p_ctBIm_2p_cHtbIm_0p'
p44
I42
sS'ctWRe_0p_ctBRe_0p_cHQ3_0p_cHt_0p_cHtbRe_0p_ctWIm_0p_ctBIm_0p_cHtbIm_2p'
p45
I44
sS'ctWRe_0p_ctBRe_0p_cHQ3_1p_cHt_0p_cHtbRe_0p_ctWIm_1p_ctBIm_0p_cHtbIm_0p'
p46
I27
sS'ctWRe_1p_ctBRe_1p_cHQ3_0p_cHt_0p_cHtbRe_0p_ctWIm_0p_ctBIm_0p_cHtbIm_0p'
p47
I10
sS'ctWRe_1p_ctBRe_0p_cHQ3_1p_cHt_0p_cHtbRe_0p_ctWIm_0p_ctBIm_0p_cHtbIm_0p'
p48
I11
sS'ctWRe_0p_ctBRe_0p_cHQ3_0p_cHt_0p_cHtbRe_0p_ctWIm_1p_ctBIm_1p_cHtbIm_0p'
p49
I40
ssS'order'
p50
(dp51
g50
I2
ss.