(dp0
S'ref_point'
p1
(dp2
sS'rw_dict'
p3
(dp4
S'cHG_0p_cHGtil_0p_cHj1_0p_cHj3_0p_cHu_0p_cHd_0p_cHQ3_0p_cHtbRe_0p_cHtbIm_0p_cHW_0p_cHWtil_0p_cHB_0p_cHBtil_0p_cHWB_0p_cHWBtil_0p_cHbox_0p_cHDD_0p_cHl3_0p_cll1_1p_cG_1p_cGtil_0p_ctGRe_0p_ctGIm_0p_ctWRe_0p_ctWIm_0p'
p5
I324
sS'cHG_0p_cHGtil_0p_cHj1_0p_cHj3_0p_cHu_0p_cHd_0p_cHQ3_0p_cHtbRe_0p_cHtbIm_0p_cHW_0p_cHWtil_0p_cHB_0p_cHBtil_0p_cHWB_0p_cHWBtil_0p_cHbox_0p_cHDD_0p_cHl3_0p_cll1_1p_cG_0p_cGtil_0p_ctGRe_1p_ctGIm_0p_ctWRe_0p_ctWIm_0p'
p6
I326
sS'cHG_0p_cHGtil_0p_cHj1_1p_cHj3_0p_cHu_0p_cHd_0p_cHQ3_0p_cHtbRe_0p_cHtbIm_0p_cHW_0p_cHWtil_0p_cHB_0p_cHBtil_1p_cHWB_0p_cHWBtil_0p_cHbox_0p_cHDD_0p_cHl3_0p_cll1_0p_cG_0p_cGtil_0p_ctGRe_0p_ctGIm_0p_ctWRe_0p_ctWIm_0p'
p7
I85
sS'cHG_0p_cHGtil_0p_cHj1_1p_cHj3_0p_cHu_0p_cHd_0p_cHQ3_0p_cHtbRe_0p_cHtbIm_0p_cHW_0p_cHWtil_0p_cHB_0p_cHBtil_0p_cHWB_0p_cHWBtil_0p_cHbox_0p_cHDD_0p_cHl3_0p_cll1_0p_cG_0p_cGtil_0p_ctGRe_0p_ctGIm_0p_ctWRe_0p_ctWIm_1p'
p8
I97
sS'cHG_0p_cHGtil_0p_cHj1_0p_cHj3_0p_cHu_0p_cHd_0p_cHQ3_0p_cHtbRe_0p_cHtbIm_0p_cHW_1p_cHWtil_0p_cHB_1p_cHBtil_0p_cHWB_0p_cHWBtil_0p_cHbox_0p_cHDD_0p_cHl3_0p_cll1_0p_cG_0p_cGtil_0p_ctGRe_0p_ctGIm_0p_ctWRe_0p_ctWIm_0p'
p9
I217
sS'cHG_0p_cHGtil_0p_cHj1_0p_cHj3_0p_cHu_0p_cHd_1p_cHQ3_0p_cHtbRe_0p_cHtbIm_0p_cHW_0p_cHWtil_0p_cHB_0p_cHBtil_0p_cHWB_0p_cHWBtil_0p_cHbox_0p_cHDD_0p_cHl3_0p_cll1_0p_cG_0p_cGtil_0p_ctGRe_1p_ctGIm_0p_ctWRe_0p_ctWIm_0p'
p10
I157
sS'cHG_0p_cHGtil_0p_cHj1_0p_cHj3_0p_cHu_1p_cHd_1p_cHQ3_0p_cHtbRe_0p_cHtbIm_0p_cHW_0p_cHWtil_0p_cHB_0p_cHBtil_0p_cHWB_0p_cHWBtil_0p_cHbox_0p_cHDD_0p_cHl3_0p_cll1_0p_cG_0p_cGtil_0p_ctGRe_0p_ctGIm_0p_ctWRe_0p_ctWIm_0p'
p11
I121
sS'cHG_0p_cHGtil_0p_cHj1_0p_cHj3_0p_cHu_0p_cHd_0p_cHQ3_0p_cHtbRe_0p_cHtbIm_0p_cHW_0p_cHWtil_0p_cHB_0p_cHBtil_1p_cHWB_0p_cHWBtil_0p_cHbox_0p_cHDD_1p_cHl3_0p_cll1_0p_cG_0p_cGtil_0p_ctGRe_0p_ctGIm_0p_ctWRe_0p_ctWIm_0p'
p12
I264
sS'cHG_1p_cHGtil_0p_cHj1_1p_cHj3_0p_cHu_0p_cHd_0p_cHQ3_0p_cHtbRe_0p_cHtbIm_0p_cHW_0p_cHWtil_0p_cHB_0p_cHBtil_0p_cHWB_0p_cHWBtil_0p_cHbox_0p_cHDD_0p_cHl3_0p_cll1_0p_cG_0p_cGtil_0p_ctGRe_0p_ctGIm_0p_ctWRe_0p_ctWIm_0p'
p13
I28
sS'cHG_0p_cHGtil_0p_cHj1_1p_cHj3_0p_cHu_1p_cHd_0p_cHQ3_0p_cHtbRe_0p_cHtbIm_0p_cHW_0p_cHWtil_0p_cHB_0p_cHBtil_0p_cHWB_0p_cHWBtil_0p_cHbox_0p_cHDD_0p_cHl3_0p_cll1_0p_cG_0p_cGtil_0p_ctGRe_0p_ctGIm_0p_ctWRe_0p_ctWIm_0p'
p14
I77
sS'cHG_0p_cHGtil_0p_cHj1_0p_cHj3_0p_cHu_0p_cHd_0p_cHQ3_0p_cHtbRe_0p_cHtbIm_0p_cHW_0p_cHWtil_0p_cHB_1p_cHBtil_0p_cHWB_0p_cHWBtil_0p_cHbox_0p_cHDD_1p_cHl3_0p_cll1_0p_cG_0p_cGtil_0p_ctGRe_0p_ctGIm_0p_ctWRe_0p_ctWIm_0p'
p15
I251
sS'cHG_0p_cHGtil_0p_cHj1_0p_cHj3_0p_cHu_0p_cHd_0p_cHQ3_0p_cHtbRe_0p_cHtbIm_0p_cHW_0p_cHWtil_1p_cHB_0p_cHBtil_0p_cHWB_0p_cHWBtil_0p_cHbox_0p_cHDD_0p_cHl3_0p_cll1_0p_cG_0p_cGtil_0p_ctGRe_0p_ctGIm_0p_ctWRe_1p_ctWIm_0p'
p16
I244
sS'cHG_0p_cHGtil_1p_cHj1_0p_cHj3_0p_cHu_0p_cHd_0p_cHQ3_0p_cHtbRe_0p_cHtbIm_0p_cHW_0p_cHWtil_0p_cHB_0p_cHBtil_0p_cHWB_0p_cHWBtil_0p_cHbox_0p_cHDD_1p_cHl3_0p_cll1_0p_cG_0p_cGtil_0p_ctGRe_0p_ctGIm_0p_ctWRe_0p_ctWIm_0p'
p17
I66
sS'cHG_0p_cHGtil_0p_cHj1_0p_cHj3_0p_cHu_0p_cHd_0p_cHQ3_0p_cHtbRe_0p_cHtbIm_0p_cHW_0p_cHWtil_1p_cHB_0p_cHBtil_0p_cHWB_0p_cHWBtil_1p_cHbox_0p_cHDD_0p_cHl3_0p_cll1_0p_cG_0p_cGtil_0p_ctGRe_0p_ctGIm_0p_ctWRe_0p_ctWIm_0p'
p18
I235
sS'cHG_0p_cHGtil_0p_cHj1_0p_cHj3_0p_cHu_0p_cHd_0p_cHQ3_0p_cHtbRe_0p_cHtbIm_1p_cHW_0p_cHWtil_1p_cHB_0p_cHBtil_0p_cHWB_0p_cHWBtil_0p_cHbox_0p_cHDD_0p_cHl3_0p_cll1_0p_cG_0p_cGtil_0p_ctGRe_0p_ctGIm_0p_ctWRe_0p_ctWIm_0p'
p19
I200
sS'cHG_0p_cHGtil_0p_cHj1_0p_cHj3_0p_cHu_0p_cHd_0p_cHQ3_0p_cHtbRe_1p_cHtbIm_0p_cHW_0p_cHWtil_0p_cHB_0p_cHBtil_0p_cHWB_1p_cHWBtil_0p_cHbox_0p_cHDD_0p_cHl3_0p_cll1_0p_cG_0p_cGtil_0p_ctGRe_0p_ctGIm_0p_ctWRe_0p_ctWIm_0p'
p20
I186
sS'cHG_1p_cHGtil_0p_cHj1_0p_cHj3_0p_cHu_0p_cHd_0p_cHQ3_0p_cHtbRe_0p_cHtbIm_0p_cHW_0p_cHWtil_1p_cHB_0p_cHBtil_0p_cHWB_0p_cHWBtil_0p_cHbox_0p_cHDD_0p_cHl3_0p_cll1_0p_cG_0p_cGtil_0p_ctGRe_0p_ctGIm_0p_ctWRe_0p_ctWIm_0p'
p21
I36
sS'cHG_0p_cHGtil_0p_cHj1_0p_cHj3_0p_cHu_0p_cHd_1p_cHQ3_0p_cHtbRe_0p_cHtbIm_0p_cHW_0p_cHWtil_0p_cHB_0p_cHBtil_0p_cHWB_0p_cHWBtil_0p_cHbox_0p_cHDD_1p_cHl3_0p_cll1_0p_cG_0p_cGtil_0p_ctGRe_0p_ctGIm_0p_ctWRe_0p_ctWIm_0p'
p22
I152
sS'cHG_0p_cHGtil_0p_cHj1_0p_cHj3_0p_cHu_0p_cHd_0p_cHQ3_0p_cHtbRe_0p_cHtbIm_0p_cHW_0p_cHWtil_0p_cHB_0p_cHBtil_0p_cHWB_1p_cHWBtil_0p_cHbox_0p_cHDD_0p_cHl3_0p_cll1_0p_cG_0p_cGtil_1p_ctGRe_0p_ctGIm_0p_ctWRe_0p_ctWIm_0p'
p23
I280
sS'cHG_0p_cHGtil_0p_cHj1_0p_cHj3_0p_cHu_0p_cHd_1p_cHQ3_0p_cHtbRe_0p_cHtbIm_0p_cHW_0p_cHWtil_0p_cHB_0p_cHBtil_0p_cHWB_1p_cHWBtil_0p_cHbox_0p_cHDD_0p_cHl3_0p_cll1_0p_cG_0p_cGtil_0p_ctGRe_0p_ctGIm_0p_ctWRe_0p_ctWIm_0p'
p24
I149
sS'cHG_0p_cHGtil_0p_cHj1_0p_cHj3_0p_cHu_0p_cHd_0p_cHQ3_0p_cHtbRe_0p_cHtbIm_0p_cHW_0p_cHWtil_0p_cHB_0p_cHBtil_0p_cHWB_0p_cHWBtil_0p_cHbox_0p_cHDD_1p_cHl3_0p_cll1_0p_cG_0p_cGtil_0p_ctGRe_0p_ctGIm_0p_ctWRe_0p_ctWIm_0p'
p25
I17
sS'cHG_0p_cHGtil_1p_cHj1_0p_cHj3_0p_cHu_0p_cHd_0p_cHQ3_0p_cHtbRe_0p_cHtbIm_0p_cHW_0p_cHWtil_0p_cHB_0p_cHBtil_0p_cHWB_0p_cHWBtil_0p_cHbox_0p_cHDD_0p_cHl3_0p_cll1_0p_cG_0p_cGtil_0p_ctGRe_1p_ctGIm_0p_ctWRe_0p_ctWIm_0p'
p26
I71
sS'cHG_0p_cHGtil_0p_cHj1_0p_cHj3_0p_cHu_0p_cHd_0p_cHQ3_0p_cHtbRe_0p_cHtbIm_0p_cHW_0p_cHWtil_0p_cHB_0p_cHBtil_0p_cHWB_0p_cHWBtil_0p_cHbox_0p_cHDD_0p_cHl3_2p_cll1_0p_cG_0p_cGtil_0p_ctGRe_0p_ctGIm_0p_ctWRe_0p_ctWIm_0p'
p27
I315
sS'cHG_0p_cHGtil_0p_cHj1_0p_cHj3_0p_cHu_0p_cHd_0p_cHQ3_1p_cHtbRe_0p_cHtbIm_0p_cHW_0p_cHWtil_0p_cHB_0p_cHBtil_0p_cHWB_0p_cHWBtil_0p_cHbox_0p_cHDD_0p_cHl3_0p_cll1_0p_cG_0p_cGtil_0p_ctGRe_1p_ctGIm_0p_ctWRe_0p_ctWIm_0p'
p28
I176
sS'cHG_0p_cHGtil_0p_cHj1_0p_cHj3_0p_cHu_0p_cHd_0p_cHQ3_0p_cHtbRe_0p_cHtbIm_0p_cHW_0p_cHWtil_0p_cHB_0p_cHBtil_0p_cHWB_1p_cHWBtil_0p_cHbox_0p_cHDD_0p_cHl3_0p_cll1_0p_cG_0p_cGtil_0p_ctGRe_0p_ctGIm_0p_ctWRe_0p_ctWIm_0p'
p29
I14
sS'cHG_0p_cHGtil_0p_cHj1_0p_cHj3_0p_cHu_0p_cHd_0p_cHQ3_0p_cHtbRe_0p_cHtbIm_1p_cHW_0p_cHWtil_0p_cHB_0p_cHBtil_0p_cHWB_0p_cHWBtil_0p_cHbox_0p_cHDD_0p_cHl3_0p_cll1_0p_cG_0p_cGtil_1p_ctGRe_0p_ctGIm_0p_ctWRe_0p_ctWIm_0p'
p30
I210
sS'cHG_1p_cHGtil_0p_cHj1_0p_cHj3_0p_cHu_0p_cHd_0p_cHQ3_0p_cHtbRe_0p_cHtbIm_0p_cHW_0p_cHWtil_0p_cHB_0p_cHBtil_0p_cHWB_1p_cHWBtil_0p_cHbox_0p_cHDD_0p_cHl3_0p_cll1_0p_cG_0p_cGtil_0p_ctGRe_0p_ctGIm_0p_ctWRe_0p_ctWIm_0p'
p31
I39
sS'cHG_0p_cHGtil_0p_cHj1_0p_cHj3_0p_cHu_0p_cHd_0p_cHQ3_0p_cHtbRe_0p_cHtbIm_0p_cHW_0p_cHWtil_0p_cHB_0p_cHBtil_0p_cHWB_0p_cHWBtil_0p_cHbox_0p_cHDD_1p_cHl3_0p_cll1_0p_cG_0p_cGtil_1p_ctGRe_0p_ctGIm_0p_ctWRe_0p_ctWIm_0p'
p32
I310
sS'cHG_0p_cHGtil_0p_cHj1_0p_cHj3_0p_cHu_0p_cHd_0p_cHQ3_0p_cHtbRe_0p_cHtbIm_0p_cHW_0p_cHWtil_0p_cHB_0p_cHBtil_0p_cHWB_1p_cHWBtil_0p_cHbox_0p_cHDD_0p_cHl3_0p_cll1_0p_cG_0p_cGtil_0p_ctGRe_0p_ctGIm_0p_ctWRe_1p_ctWIm_0p'
p33
I283
sS'cHG_0p_cHGtil_0p_cHj1_0p_cHj3_0p_cHu_0p_cHd_0p_cHQ3_0p_cHtbRe_0p_cHtbIm_1p_cHW_0p_cHWtil_0p_cHB_0p_cHBtil_0p_cHWB_0p_cHWBtil_0p_cHbox_0p_cHDD_0p_cHl3_0p_cll1_0p_cG_1p_cGtil_0p_ctGRe_0p_ctGIm_0p_ctWRe_0p_ctWIm_0p'
p34
I209
sS'cHG_0p_cHGtil_0p_cHj1_0p_cHj3_0p_cHu_0p_cHd_0p_cHQ3_0p_cHtbRe_0p_cHtbIm_0p_cHW_0p_cHWtil_0p_cHB_0p_cHBtil_0p_cHWB_0p_cHWBtil_1p_cHbox_0p_cHDD_0p_cHl3_0p_cll1_1p_cG_0p_cGtil_0p_ctGRe_0p_ctGIm_0p_ctWRe_0p_ctWIm_0p'
p35
I289
sS'cHG_0p_cHGtil_0p_cHj1_0p_cHj3_0p_cHu_0p_cHd_0p_cHQ3_0p_cHtbRe_0p_cHtbIm_0p_cHW_0p_cHWtil_0p_cHB_0p_cHBtil_1p_cHWB_0p_cHWBtil_0p_cHbox_0p_cHDD_0p_cHl3_0p_cll1_0p_cG_0p_cGtil_0p_ctGRe_0p_ctGIm_1p_ctWRe_0p_ctWIm_0p'
p36
I270
sS'cHG_0p_cHGtil_0p_cHj1_0p_cHj3_1p_cHu_0p_cHd_0p_cHQ3_0p_cHtbRe_0p_cHtbIm_0p_cHW_0p_cHWtil_0p_cHB_0p_cHBtil_0p_cHWB_0p_cHWBtil_1p_cHbox_0p_cHDD_0p_cHl3_0p_cll1_0p_cG_0p_cGtil_0p_ctGRe_0p_ctGIm_0p_ctWRe_0p_ctWIm_0p'
p37
I109
sS'cHG_0p_cHGtil_0p_cHj1_0p_cHj3_0p_cHu_0p_cHd_0p_cHQ3_0p_cHtbRe_0p_cHtbIm_0p_cHW_0p_cHWtil_1p_cHB_0p_cHBtil_0p_cHWB_0p_cHWBtil_0p_cHbox_0p_cHDD_0p_cHl3_0p_cll1_0p_cG_0p_cGtil_1p_ctGRe_0p_ctGIm_0p_ctWRe_0p_ctWIm_0p'
p38
I241
sS'cHG_0p_cHGtil_0p_cHj1_0p_cHj3_0p_cHu_0p_cHd_0p_cHQ3_0p_cHtbRe_0p_cHtbIm_0p_cHW_0p_cHWtil_0p_cHB_0p_cHBtil_0p_cHWB_0p_cHWBtil_2p_cHbox_0p_cHDD_0p_cHl3_0p_cll1_0p_cG_0p_cGtil_0p_ctGRe_0p_ctGIm_0p_ctWRe_0p_ctWIm_0p'
p39
I285
sS'cHG_0p_cHGtil_0p_cHj1_0p_cHj3_0p_cHu_0p_cHd_0p_cHQ3_0p_cHtbRe_0p_cHtbIm_0p_cHW_0p_cHWtil_0p_cHB_0p_cHBtil_1p_cHWB_0p_cHWBtil_0p_cHbox_0p_cHDD_0p_cHl3_0p_cll1_0p_cG_0p_cGtil_1p_ctGRe_0p_ctGIm_0p_ctWRe_0p_ctWIm_0p'
p40
I268
sS'cHG_0p_cHGtil_0p_cHj1_0p_cHj3_0p_cHu_0p_cHd_0p_cHQ3_0p_cHtbRe_0p_cHtbIm_0p_cHW_0p_cHWtil_0p_cHB_0p_cHBtil_0p_cHWB_0p_cHWBtil_0p_cHbox_0p_cHDD_0p_cHl3_0p_cll1_0p_cG_1p_cGtil_0p_ctGRe_0p_ctGIm_1p_ctWRe_0p_ctWIm_0p'
p41
I333
sS'cHG_0p_cHGtil_0p_cHj1_0p_cHj3_0p_cHu_0p_cHd_0p_cHQ3_0p_cHtbRe_0p_cHtbIm_0p_cHW_0p_cHWtil_0p_cHB_0p_cHBtil_1p_cHWB_1p_cHWBtil_0p_cHbox_0p_cHDD_0p_cHl3_0p_cll1_0p_cG_0p_cGtil_0p_ctGRe_0p_ctGIm_0p_ctWRe_0p_ctWIm_0p'
p42
I261
sS'cHG_0p_cHGtil_0p_cHj1_0p_cHj3_0p_cHu_0p_cHd_0p_cHQ3_0p_cHtbRe_0p_cHtbIm_0p_cHW_1p_cHWtil_0p_cHB_0p_cHBtil_0p_cHWB_0p_cHWBtil_0p_cHbox_0p_cHDD_0p_cHl3_0p_cll1_0p_cG_0p_cGtil_1p_ctGRe_0p_ctGIm_0p_ctWRe_0p_ctWIm_0p'
p43
I226
sS'cHG_0p_cHGtil_0p_cHj1_0p_cHj3_1p_cHu_0p_cHd_0p_cHQ3_0p_cHtbRe_0p_cHtbIm_0p_cHW_0p_cHWtil_0p_cHB_0p_cHBtil_0p_cHWB_0p_cHWBtil_0p_cHbox_0p_cHDD_0p_cHl3_0p_cll1_0p_cG_1p_cGtil_0p_ctGRe_0p_ctGIm_0p_ctWRe_0p_ctWIm_0p'
p44
I114
sS'cHG_0p_cHGtil_0p_cHj1_0p_cHj3_0p_cHu_0p_cHd_0p_cHQ3_0p_cHtbRe_0p_cHtbIm_0p_cHW_0p_cHWtil_0p_cHB_1p_cHBtil_0p_cHWB_0p_cHWBtil_0p_cHbox_0p_cHDD_0p_cHl3_0p_cll1_0p_cG_0p_cGtil_0p_ctGRe_0p_ctGIm_1p_ctWRe_0p_ctWIm_0p'
p45
I257
sS'cHG_0p_cHGtil_0p_cHj1_0p_cHj3_0p_cHu_0p_cHd_0p_cHQ3_0p_cHtbRe_0p_cHtbIm_0p_cHW_0p_cHWtil_0p_cHB_0p_cHBtil_0p_cHWB_1p_cHWBtil_0p_cHbox_0p_cHDD_0p_cHl3_0p_cll1_0p_cG_0p_cGtil_0p_ctGRe_0p_ctGIm_1p_ctWRe_0p_ctWIm_0p'
p46
I282
sS'cHG_0p_cHGtil_0p_cHj1_0p_cHj3_0p_cHu_0p_cHd_0p_cHQ3_1p_cHtbRe_1p_cHtbIm_0p_cHW_0p_cHWtil_0p_cHB_0p_cHBtil_0p_cHWB_0p_cHWBtil_0p_cHbox_0p_cHDD_0p_cHl3_0p_cll1_0p_cG_0p_cGtil_0p_ctGRe_0p_ctGIm_0p_ctWRe_0p_ctWIm_0p'
p47
I162
sS'cHG_0p_cHGtil_0p_cHj1_0p_cHj3_0p_cHu_0p_cHd_0p_cHQ3_0p_cHtbRe_0p_cHtbIm_0p_cHW_0p_cHWtil_0p_cHB_0p_cHBtil_0p_cHWB_0p_cHWBtil_0p_cHbox_1p_cHDD_0p_cHl3_0p_cll1_0p_cG_0p_cGtil_0p_ctGRe_0p_ctGIm_0p_ctWRe_0p_ctWIm_0p'
p48
I16
sS'cHG_0p_cHGtil_0p_cHj1_1p_cHj3_0p_cHu_0p_cHd_0p_cHQ3_0p_cHtbRe_0p_cHtbIm_0p_cHW_0p_cHWtil_0p_cHB_0p_cHBtil_0p_cHWB_0p_cHWBtil_0p_cHbox_0p_cHDD_0p_cHl3_1p_cll1_0p_cG_0p_cGtil_0p_ctGRe_0p_ctGIm_0p_ctWRe_0p_ctWIm_0p'
p49
I90
sS'cHG_0p_cHGtil_0p_cHj1_0p_cHj3_0p_cHu_0p_cHd_0p_cHQ3_0p_cHtbRe_0p_cHtbIm_0p_cHW_0p_cHWtil_0p_cHB_0p_cHBtil_0p_cHWB_0p_cHWBtil_0p_cHbox_0p_cHDD_0p_cHl3_0p_cll1_0p_cG_0p_cGtil_1p_ctGRe_0p_ctGIm_0p_ctWRe_0p_ctWIm_1p'
p50
I340
sS'cHG_0p_cHGtil_0p_cHj1_0p_cHj3_0p_cHu_0p_cHd_0p_cHQ3_0p_cHtbRe_0p_cHtbIm_0p_cHW_0p_cHWtil_0p_cHB_0p_cHBtil_0p_cHWB_2p_cHWBtil_0p_cHbox_0p_cHDD_0p_cHl3_0p_cll1_0p_cG_0p_cGtil_0p_ctGRe_0p_ctGIm_0p_ctWRe_0p_ctWIm_0p'
p51
I273
sS'cHG_0p_cHGtil_0p_cHj1_0p_cHj3_0p_cHu_1p_cHd_0p_cHQ3_0p_cHtbRe_0p_cHtbIm_0p_cHW_0p_cHWtil_0p_cHB_0p_cHBtil_0p_cHWB_0p_cHWBtil_0p_cHbox_0p_cHDD_0p_cHl3_1p_cll1_0p_cG_0p_cGtil_0p_ctGRe_0p_ctGIm_0p_ctWRe_0p_ctWIm_0p'
p52
I133
sS'cHG_0p_cHGtil_0p_cHj1_0p_cHj3_0p_cHu_1p_cHd_0p_cHQ3_0p_cHtbRe_0p_cHtbIm_0p_cHW_0p_cHWtil_0p_cHB_0p_cHBtil_0p_cHWB_0p_cHWBtil_0p_cHbox_0p_cHDD_0p_cHl3_0p_cll1_0p_cG_0p_cGtil_0p_ctGRe_0p_ctGIm_1p_ctWRe_0p_ctWIm_0p'
p53
I138
sS'cHG_0p_cHGtil_1p_cHj1_0p_cHj3_0p_cHu_0p_cHd_0p_cHQ3_0p_cHtbRe_0p_cHtbIm_0p_cHW_1p_cHWtil_0p_cHB_0p_cHBtil_0p_cHWB_0p_cHWBtil_0p_cHbox_0p_cHDD_0p_cHl3_0p_cll1_0p_cG_0p_cGtil_0p_ctGRe_0p_ctGIm_0p_ctWRe_0p_ctWIm_0p'
p54
I59
sS'cHG_0p_cHGtil_0p_cHj1_0p_cHj3_0p_cHu_0p_cHd_0p_cHQ3_0p_cHtbRe_1p_cHtbIm_1p_cHW_0p_cHWtil_0p_cHB_0p_cHBtil_0p_cHWB_0p_cHWBtil_0p_cHbox_0p_cHDD_0p_cHl3_0p_cll1_0p_cG_0p_cGtil_0p_ctGRe_0p_ctGIm_0p_ctWRe_0p_ctWIm_0p'
p55
I181
sS'cHG_0p_cHGtil_0p_cHj1_0p_cHj3_0p_cHu_0p_cHd_1p_cHQ3_0p_cHtbRe_0p_cHtbIm_0p_cHW_1p_cHWtil_0p_cHB_0p_cHBtil_0p_cHWB_0p_cHWBtil_0p_cHbox_0p_cHDD_0p_cHl3_0p_cll1_0p_cG_0p_cGtil_0p_ctGRe_0p_ctGIm_0p_ctWRe_0p_ctWIm_0p'
p56
I145
sS'cHG_0p_cHGtil_0p_cHj1_0p_cHj3_0p_cHu_0p_cHd_0p_cHQ3_0p_cHtbRe_0p_cHtbIm_0p_cHW_0p_cHWtil_0p_cHB_0p_cHBtil_0p_cHWB_0p_cHWBtil_0p_cHbox_0p_cHDD_0p_cHl3_0p_cll1_0p_cG_0p_cGtil_2p_ctGRe_0p_ctGIm_0p_ctWRe_0p_ctWIm_0p'
p57
I336
sS'cHG_0p_cHGtil_0p_cHj1_1p_cHj3_0p_cHu_0p_cHd_0p_cHQ3_0p_cHtbRe_0p_cHtbIm_0p_cHW_0p_cHWtil_0p_cHB_0p_cHBtil_0p_cHWB_0p_cHWBtil_0p_cHbox_0p_cHDD_0p_cHl3_0p_cll1_0p_cG_1p_cGtil_0p_ctGRe_0p_ctGIm_0p_ctWRe_0p_ctWIm_0p'
p58
I92
sS'cHG_0p_cHGtil_0p_cHj1_0p_cHj3_0p_cHu_2p_cHd_0p_cHQ3_0p_cHtbRe_0p_cHtbIm_0p_cHW_0p_cHWtil_0p_cHB_0p_cHBtil_0p_cHWB_0p_cHWBtil_0p_cHbox_0p_cHDD_0p_cHl3_0p_cll1_0p_cG_0p_cGtil_0p_ctGRe_0p_ctGIm_0p_ctWRe_0p_ctWIm_0p'
p59
I120
sS'cHG_0p_cHGtil_0p_cHj1_0p_cHj3_0p_cHu_1p_cHd_0p_cHQ3_0p_cHtbRe_0p_cHtbIm_0p_cHW_1p_cHWtil_0p_cHB_0p_cHBtil_0p_cHWB_0p_cHWBtil_0p_cHbox_0p_cHDD_0p_cHl3_0p_cll1_0p_cG_0p_cGtil_0p_ctGRe_0p_ctGIm_0p_ctWRe_0p_ctWIm_0p'
p60
I125
sS'cHG_0p_cHGtil_0p_cHj1_0p_cHj3_0p_cHu_0p_cHd_0p_cHQ3_0p_cHtbRe_0p_cHtbIm_0p_cHW_1p_cHWtil_0p_cHB_0p_cHBtil_0p_cHWB_0p_cHWBtil_0p_cHbox_0p_cHDD_0p_cHl3_0p_cll1_0p_cG_0p_cGtil_0p_ctGRe_0p_ctGIm_0p_ctWRe_0p_ctWIm_1p'
p61
I230
sS'cHG_0p_cHGtil_0p_cHj1_0p_cHj3_0p_cHu_0p_cHd_0p_cHQ3_0p_cHtbRe_0p_cHtbIm_0p_cHW_0p_cHWtil_0p_cHB_0p_cHBtil_0p_cHWB_0p_cHWBtil_0p_cHbox_0p_cHDD_0p_cHl3_1p_cll1_0p_cG_0p_cGtil_0p_ctGRe_0p_ctGIm_0p_ctWRe_0p_ctWIm_1p'
p62
I322
sS'cHG_0p_cHGtil_0p_cHj1_0p_cHj3_0p_cHu_0p_cHd_0p_cHQ3_0p_cHtbRe_0p_cHtbIm_0p_cHW_0p_cHWtil_0p_cHB_0p_cHBtil_0p_cHWB_0p_cHWBtil_0p_cHbox_0p_cHDD_0p_cHl3_1p_cll1_0p_cG_0p_cGtil_0p_ctGRe_1p_ctGIm_0p_ctWRe_0p_ctWIm_0p'
p63
I319
sS'cHG_0p_cHGtil_0p_cHj1_0p_cHj3_0p_cHu_0p_cHd_0p_cHQ3_0p_cHtbRe_0p_cHtbIm_0p_cHW_0p_cHWtil_0p_cHB_0p_cHBtil_0p_cHWB_0p_cHWBtil_0p_cHbox_0p_cHDD_1p_cHl3_0p_cll1_0p_cG_0p_cGtil_0p_ctGRe_0p_ctGIm_1p_ctWRe_0p_ctWIm_0p'
p64
I312
sS'cHG_0p_cHGtil_0p_cHj1_0p_cHj3_0p_cHu_1p_cHd_0p_cHQ3_0p_cHtbRe_0p_cHtbIm_0p_cHW_0p_cHWtil_0p_cHB_0p_cHBtil_0p_cHWB_1p_cHWBtil_0p_cHbox_0p_cHDD_0p_cHl3_0p_cll1_0p_cG_0p_cGtil_0p_ctGRe_0p_ctGIm_0p_ctWRe_0p_ctWIm_0p'
p65
I129
sS'cHG_0p_cHGtil_0p_cHj1_0p_cHj3_0p_cHu_0p_cHd_0p_cHQ3_0p_cHtbRe_0p_cHtbIm_0p_cHW_0p_cHWtil_0p_cHB_0p_cHBtil_0p_cHWB_0p_cHWBtil_0p_cHbox_1p_cHDD_1p_cHl3_0p_cll1_0p_cG_0p_cGtil_0p_ctGRe_0p_ctGIm_0p_ctWRe_0p_ctWIm_0p'
p66
I297
sS'cHG_0p_cHGtil_0p_cHj1_1p_cHj3_0p_cHu_0p_cHd_0p_cHQ3_0p_cHtbRe_0p_cHtbIm_1p_cHW_0p_cHWtil_0p_cHB_0p_cHBtil_0p_cHWB_0p_cHWBtil_0p_cHbox_0p_cHDD_0p_cHl3_0p_cll1_0p_cG_0p_cGtil_0p_ctGRe_0p_ctGIm_0p_ctWRe_0p_ctWIm_0p'
p67
I81
sS'cHG_0p_cHGtil_1p_cHj1_0p_cHj3_0p_cHu_0p_cHd_0p_cHQ3_0p_cHtbRe_0p_cHtbIm_0p_cHW_0p_cHWtil_0p_cHB_0p_cHBtil_0p_cHWB_0p_cHWBtil_0p_cHbox_0p_cHDD_0p_cHl3_0p_cll1_0p_cG_0p_cGtil_0p_ctGRe_0p_ctGIm_0p_ctWRe_0p_ctWIm_0p'
p68
I2
sS'cHG_0p_cHGtil_0p_cHj1_0p_cHj3_0p_cHu_1p_cHd_0p_cHQ3_0p_cHtbRe_0p_cHtbIm_0p_cHW_0p_cHWtil_0p_cHB_0p_cHBtil_0p_cHWB_0p_cHWBtil_0p_cHbox_0p_cHDD_0p_cHl3_0p_cll1_0p_cG_1p_cGtil_0p_ctGRe_0p_ctGIm_0p_ctWRe_0p_ctWIm_0p'
p69
I135
sS'cHG_0p_cHGtil_1p_cHj1_0p_cHj3_0p_cHu_0p_cHd_0p_cHQ3_0p_cHtbRe_0p_cHtbIm_0p_cHW_0p_cHWtil_0p_cHB_0p_cHBtil_0p_cHWB_0p_cHWBtil_0p_cHbox_0p_cHDD_0p_cHl3_0p_cll1_0p_cG_0p_cGtil_1p_ctGRe_0p_ctGIm_0p_ctWRe_0p_ctWIm_0p'
p70
I70
sS'cHG_1p_cHGtil_0p_cHj1_0p_cHj3_0p_cHu_0p_cHd_0p_cHQ3_1p_cHtbRe_0p_cHtbIm_0p_cHW_0p_cHWtil_0p_cHB_0p_cHBtil_0p_cHWB_0p_cHWBtil_0p_cHbox_0p_cHDD_0p_cHl3_0p_cll1_0p_cG_0p_cGtil_0p_ctGRe_0p_ctGIm_0p_ctWRe_0p_ctWIm_0p'
p71
I32
sS'cHG_0p_cHGtil_0p_cHj1_0p_cHj3_0p_cHu_0p_cHd_0p_cHQ3_0p_cHtbRe_0p_cHtbIm_0p_cHW_0p_cHWtil_0p_cHB_0p_cHBtil_0p_cHWB_0p_cHWBtil_1p_cHbox_0p_cHDD_0p_cHl3_0p_cll1_0p_cG_0p_cGtil_0p_ctGRe_0p_ctGIm_0p_ctWRe_1p_ctWIm_0p'
p72
I294
sS'cHG_0p_cHGtil_0p_cHj1_0p_cHj3_0p_cHu_0p_cHd_0p_cHQ3_0p_cHtbRe_0p_cHtbIm_1p_cHW_0p_cHWtil_0p_cHB_0p_cHBtil_1p_cHWB_0p_cHWBtil_0p_cHbox_0p_cHDD_0p_cHl3_0p_cll1_0p_cG_0p_cGtil_0p_ctGRe_0p_ctGIm_0p_ctWRe_0p_ctWIm_0p'
p73
I202
sS'cHG_0p_cHGtil_0p_cHj1_0p_cHj3_0p_cHu_0p_cHd_0p_cHQ3_0p_cHtbRe_0p_cHtbIm_0p_cHW_0p_cHWtil_0p_cHB_0p_cHBtil_0p_cHWB_0p_cHWBtil_0p_cHbox_0p_cHDD_0p_cHl3_0p_cll1_1p_cG_0p_cGtil_0p_ctGRe_0p_ctGIm_0p_ctWRe_0p_ctWIm_0p'
p74
I19
sS'cHG_0p_cHGtil_0p_cHj1_0p_cHj3_0p_cHu_0p_cHd_0p_cHQ3_0p_cHtbRe_0p_cHtbIm_0p_cHW_0p_cHWtil_0p_cHB_0p_cHBtil_0p_cHWB_0p_cHWBtil_0p_cHbox_1p_cHDD_0p_cHl3_0p_cll1_0p_cG_0p_cGtil_0p_ctGRe_1p_ctGIm_0p_ctWRe_0p_ctWIm_0p'
p75
I302
sS'cHG_0p_cHGtil_0p_cHj1_0p_cHj3_0p_cHu_0p_cHd_0p_cHQ3_1p_cHtbRe_0p_cHtbIm_0p_cHW_0p_cHWtil_0p_cHB_0p_cHBtil_0p_cHWB_0p_cHWBtil_0p_cHbox_0p_cHDD_0p_cHl3_0p_cll1_1p_cG_0p_cGtil_0p_ctGRe_0p_ctGIm_0p_ctWRe_0p_ctWIm_0p'
p76
I173
sS'cHG_0p_cHGtil_0p_cHj1_0p_cHj3_0p_cHu_0p_cHd_0p_cHQ3_0p_cHtbRe_0p_cHtbIm_0p_cHW_0p_cHWtil_0p_cHB_1p_cHBtil_0p_cHWB_0p_cHWBtil_0p_cHbox_0p_cHDD_0p_cHl3_0p_cll1_0p_cG_0p_cGtil_0p_ctGRe_1p_ctGIm_0p_ctWRe_0p_ctWIm_0p'
p77
I256
sS'cHG_0p_cHGtil_1p_cHj1_0p_cHj3_0p_cHu_0p_cHd_0p_cHQ3_0p_cHtbRe_0p_cHtbIm_0p_cHW_0p_cHWtil_0p_cHB_0p_cHBtil_0p_cHWB_0p_cHWBtil_1p_cHbox_0p_cHDD_0p_cHl3_0p_cll1_0p_cG_0p_cGtil_0p_ctGRe_0p_ctGIm_0p_ctWRe_0p_ctWIm_0p'
p78
I64
sS'cHG_0p_cHGtil_0p_cHj1_0p_cHj3_0p_cHu_0p_cHd_0p_cHQ3_0p_cHtbRe_0p_cHtbIm_0p_cHW_0p_cHWtil_0p_cHB_0p_cHBtil_0p_cHWB_0p_cHWBtil_0p_cHbox_0p_cHDD_0p_cHl3_0p_cll1_1p_cG_0p_cGtil_1p_ctGRe_0p_ctGIm_0p_ctWRe_0p_ctWIm_0p'
p79
I325
sS'cHG_0p_cHGtil_0p_cHj1_0p_cHj3_0p_cHu_0p_cHd_0p_cHQ3_0p_cHtbRe_1p_cHtbIm_0p_cHW_0p_cHWtil_0p_cHB_0p_cHBtil_0p_cHWB_0p_cHWBtil_0p_cHbox_0p_cHDD_0p_cHl3_0p_cll1_0p_cG_1p_cGtil_0p_ctGRe_0p_ctGIm_0p_ctWRe_0p_ctWIm_0p'
p80
I192
sS'cHG_0p_cHGtil_0p_cHj1_1p_cHj3_0p_cHu_0p_cHd_0p_cHQ3_0p_cHtbRe_0p_cHtbIm_0p_cHW_0p_cHWtil_0p_cHB_0p_cHBtil_0p_cHWB_0p_cHWBtil_0p_cHbox_0p_cHDD_0p_cHl3_0p_cll1_0p_cG_0p_cGtil_0p_ctGRe_1p_ctGIm_0p_ctWRe_0p_ctWIm_0p'
p81
I94
sS'cHG_0p_cHGtil_0p_cHj1_0p_cHj3_1p_cHu_1p_cHd_0p_cHQ3_0p_cHtbRe_0p_cHtbIm_0p_cHW_0p_cHWtil_0p_cHB_0p_cHBtil_0p_cHWB_0p_cHWBtil_0p_cHbox_0p_cHDD_0p_cHl3_0p_cll1_0p_cG_0p_cGtil_0p_ctGRe_0p_ctGIm_0p_ctWRe_0p_ctWIm_0p'
p82
I99
sS'cHG_0p_cHGtil_0p_cHj1_0p_cHj3_0p_cHu_0p_cHd_0p_cHQ3_0p_cHtbRe_0p_cHtbIm_0p_cHW_0p_cHWtil_0p_cHB_0p_cHBtil_0p_cHWB_0p_cHWBtil_0p_cHbox_0p_cHDD_0p_cHl3_0p_cll1_0p_cG_0p_cGtil_0p_ctGRe_0p_ctGIm_0p_ctWRe_1p_ctWIm_1p'
p83
I349
sS'cHG_0p_cHGtil_0p_cHj1_0p_cHj3_0p_cHu_0p_cHd_0p_cHQ3_0p_cHtbRe_0p_cHtbIm_0p_cHW_0p_cHWtil_0p_cHB_0p_cHBtil_0p_cHWB_0p_cHWBtil_0p_cHbox_0p_cHDD_0p_cHl3_0p_cll1_0p_cG_0p_cGtil_0p_ctGRe_1p_ctGIm_0p_ctWRe_0p_ctWIm_1p'
p84
I344
sS'cHG_0p_cHGtil_1p_cHj1_0p_cHj3_0p_cHu_0p_cHd_0p_cHQ3_0p_cHtbRe_0p_cHtbIm_0p_cHW_0p_cHWtil_1p_cHB_0p_cHBtil_0p_cHWB_0p_cHWBtil_0p_cHbox_0p_cHDD_0p_cHl3_0p_cll1_0p_cG_0p_cGtil_0p_ctGRe_0p_ctGIm_0p_ctWRe_0p_ctWIm_0p'
p85
I60
sS'cHG_1p_cHGtil_0p_cHj1_0p_cHj3_0p_cHu_0p_cHd_0p_cHQ3_0p_cHtbRe_0p_cHtbIm_0p_cHW_0p_cHWtil_0p_cHB_0p_cHBtil_0p_cHWB_0p_cHWBtil_0p_cHbox_1p_cHDD_0p_cHl3_0p_cll1_0p_cG_0p_cGtil_0p_ctGRe_0p_ctGIm_0p_ctWRe_0p_ctWIm_0p'
p86
I41
sS'cHG_0p_cHGtil_0p_cHj1_0p_cHj3_0p_cHu_0p_cHd_0p_cHQ3_0p_cHtbRe_0p_cHtbIm_0p_cHW_0p_cHWtil_0p_cHB_0p_cHBtil_0p_cHWB_1p_cHWBtil_0p_cHbox_0p_cHDD_0p_cHl3_0p_cll1_0p_cG_1p_cGtil_0p_ctGRe_0p_ctGIm_0p_ctWRe_0p_ctWIm_0p'
p87
I279
sS'cHG_0p_cHGtil_0p_cHj1_0p_cHj3_0p_cHu_0p_cHd_0p_cHQ3_0p_cHtbRe_0p_cHtbIm_0p_cHW_0p_cHWtil_0p_cHB_0p_cHBtil_0p_cHWB_0p_cHWBtil_0p_cHbox_0p_cHDD_0p_cHl3_1p_cll1_0p_cG_0p_cGtil_0p_ctGRe_0p_ctGIm_1p_ctWRe_0p_ctWIm_0p'
p88
I320
sS'cHG_0p_cHGtil_0p_cHj1_0p_cHj3_0p_cHu_0p_cHd_0p_cHQ3_0p_cHtbRe_0p_cHtbIm_2p_cHW_0p_cHWtil_0p_cHB_0p_cHBtil_0p_cHWB_0p_cHWBtil_0p_cHbox_0p_cHDD_0p_cHl3_0p_cll1_0p_cG_0p_cGtil_0p_ctGRe_0p_ctGIm_0p_ctWRe_0p_ctWIm_0p'
p89
I198
sS'cHG_0p_cHGtil_0p_cHj1_0p_cHj3_0p_cHu_0p_cHd_0p_cHQ3_1p_cHtbRe_0p_cHtbIm_0p_cHW_0p_cHWtil_0p_cHB_0p_cHBtil_1p_cHWB_0p_cHWBtil_0p_cHbox_0p_cHDD_0p_cHl3_0p_cll1_0p_cG_0p_cGtil_0p_ctGRe_0p_ctGIm_0p_ctWRe_0p_ctWIm_0p'
p90
I167
sS'cHG_1p_cHGtil_0p_cHj1_0p_cHj3_0p_cHu_0p_cHd_0p_cHQ3_0p_cHtbRe_0p_cHtbIm_0p_cHW_0p_cHWtil_0p_cHB_0p_cHBtil_0p_cHWB_0p_cHWBtil_0p_cHbox_0p_cHDD_0p_cHl3_0p_cll1_0p_cG_1p_cGtil_0p_ctGRe_0p_ctGIm_0p_ctWRe_0p_ctWIm_0p'
p91
I45
sS'cHG_0p_cHGtil_0p_cHj1_0p_cHj3_0p_cHu_0p_cHd_0p_cHQ3_0p_cHtbRe_0p_cHtbIm_0p_cHW_0p_cHWtil_0p_cHB_0p_cHBtil_0p_cHWB_0p_cHWBtil_1p_cHbox_0p_cHDD_0p_cHl3_0p_cll1_0p_cG_0p_cGtil_1p_ctGRe_0p_ctGIm_0p_ctWRe_0p_ctWIm_0p'
p92
I291
sS'cHG_0p_cHGtil_0p_cHj1_0p_cHj3_1p_cHu_0p_cHd_0p_cHQ3_0p_cHtbRe_0p_cHtbIm_0p_cHW_1p_cHWtil_0p_cHB_0p_cHBtil_0p_cHWB_0p_cHWBtil_0p_cHbox_0p_cHDD_0p_cHl3_0p_cll1_0p_cG_0p_cGtil_0p_ctGRe_0p_ctGIm_0p_ctWRe_0p_ctWIm_0p'
p93
I104
sS'cHG_0p_cHGtil_0p_cHj1_0p_cHj3_0p_cHu_0p_cHd_0p_cHQ3_0p_cHtbRe_0p_cHtbIm_0p_cHW_0p_cHWtil_0p_cHB_0p_cHBtil_0p_cHWB_0p_cHWBtil_1p_cHbox_0p_cHDD_0p_cHl3_0p_cll1_0p_cG_0p_cGtil_0p_ctGRe_0p_ctGIm_1p_ctWRe_0p_ctWIm_0p'
p94
I293
sS'cHG_0p_cHGtil_0p_cHj1_1p_cHj3_0p_cHu_0p_cHd_0p_cHQ3_0p_cHtbRe_0p_cHtbIm_0p_cHW_0p_cHWtil_0p_cHB_0p_cHBtil_0p_cHWB_0p_cHWBtil_0p_cHbox_0p_cHDD_0p_cHl3_0p_cll1_0p_cG_0p_cGtil_0p_ctGRe_0p_ctGIm_0p_ctWRe_1p_ctWIm_0p'
p95
I96
sS'cHG_0p_cHGtil_0p_cHj1_0p_cHj3_0p_cHu_0p_cHd_0p_cHQ3_0p_cHtbRe_0p_cHtbIm_0p_cHW_0p_cHWtil_0p_cHB_0p_cHBtil_0p_cHWB_0p_cHWBtil_1p_cHbox_0p_cHDD_0p_cHl3_0p_cll1_0p_cG_0p_cGtil_0p_ctGRe_0p_ctGIm_0p_ctWRe_0p_ctWIm_1p'
p96
I295
sS'cHG_0p_cHGtil_0p_cHj1_0p_cHj3_0p_cHu_0p_cHd_1p_cHQ3_0p_cHtbRe_0p_cHtbIm_0p_cHW_0p_cHWtil_0p_cHB_0p_cHBtil_0p_cHWB_0p_cHWBtil_0p_cHbox_0p_cHDD_0p_cHl3_0p_cll1_0p_cG_0p_cGtil_0p_ctGRe_0p_ctGIm_0p_ctWRe_1p_ctWIm_0p'
p97
I159
sS'cHG_0p_cHGtil_0p_cHj1_0p_cHj3_0p_cHu_0p_cHd_0p_cHQ3_0p_cHtbRe_1p_cHtbIm_0p_cHW_0p_cHWtil_0p_cHB_0p_cHBtil_0p_cHWB_0p_cHWBtil_0p_cHbox_0p_cHDD_1p_cHl3_0p_cll1_0p_cG_0p_cGtil_0p_ctGRe_0p_ctGIm_0p_ctWRe_0p_ctWIm_0p'
p98
I189
sS'cHG_0p_cHGtil_0p_cHj1_0p_cHj3_0p_cHu_0p_cHd_0p_cHQ3_1p_cHtbRe_0p_cHtbIm_0p_cHW_0p_cHWtil_0p_cHB_0p_cHBtil_0p_cHWB_1p_cHWBtil_0p_cHbox_0p_cHDD_0p_cHl3_0p_cll1_0p_cG_0p_cGtil_0p_ctGRe_0p_ctGIm_0p_ctWRe_0p_ctWIm_0p'
p99
I168
sS'cHG_0p_cHGtil_0p_cHj1_1p_cHj3_0p_cHu_0p_cHd_0p_cHQ3_0p_cHtbRe_0p_cHtbIm_0p_cHW_0p_cHWtil_0p_cHB_1p_cHBtil_0p_cHWB_0p_cHWBtil_0p_cHbox_0p_cHDD_0p_cHl3_0p_cll1_0p_cG_0p_cGtil_0p_ctGRe_0p_ctGIm_0p_ctWRe_0p_ctWIm_0p'
p100
I84
sS'cHG_0p_cHGtil_0p_cHj1_0p_cHj3_0p_cHu_1p_cHd_0p_cHQ3_0p_cHtbRe_0p_cHtbIm_0p_cHW_0p_cHWtil_0p_cHB_1p_cHBtil_0p_cHWB_0p_cHWBtil_0p_cHbox_0p_cHDD_0p_cHl3_0p_cll1_0p_cG_0p_cGtil_0p_ctGRe_0p_ctGIm_0p_ctWRe_0p_ctWIm_0p'
p101
I127
sS'cHG_0p_cHGtil_0p_cHj1_0p_cHj3_0p_cHu_0p_cHd_0p_cHQ3_0p_cHtbRe_0p_cHtbIm_0p_cHW_0p_cHWtil_0p_cHB_0p_cHBtil_0p_cHWB_0p_cHWBtil_0p_cHbox_0p_cHDD_1p_cHl3_0p_cll1_1p_cG_0p_cGtil_0p_ctGRe_0p_ctGIm_0p_ctWRe_0p_ctWIm_0p'
p102
I308
sS'cHG_0p_cHGtil_0p_cHj1_0p_cHj3_0p_cHu_0p_cHd_0p_cHQ3_0p_cHtbRe_0p_cHtbIm_0p_cHW_1p_cHWtil_1p_cHB_0p_cHBtil_0p_cHWB_0p_cHWBtil_0p_cHbox_0p_cHDD_0p_cHl3_0p_cll1_0p_cG_0p_cGtil_0p_ctGRe_0p_ctGIm_0p_ctWRe_0p_ctWIm_0p'
p103
I216
sS'cHG_0p_cHGtil_0p_cHj1_0p_cHj3_0p_cHu_0p_cHd_0p_cHQ3_0p_cHtbRe_0p_cHtbIm_0p_cHW_0p_cHWtil_0p_cHB_0p_cHBtil_0p_cHWB_0p_cHWBtil_0p_cHbox_0p_cHDD_0p_cHl3_0p_cll1_0p_cG_2p_cGtil_0p_ctGRe_0p_ctGIm_0p_ctWRe_0p_ctWIm_0p'
p104
I330
sS'cHG_0p_cHGtil_0p_cHj1_0p_cHj3_0p_cHu_0p_cHd_1p_cHQ3_0p_cHtbRe_0p_cHtbIm_0p_cHW_0p_cHWtil_0p_cHB_0p_cHBtil_0p_cHWB_0p_cHWBtil_0p_cHbox_0p_cHDD_0p_cHl3_0p_cll1_1p_cG_0p_cGtil_0p_ctGRe_0p_ctGIm_0p_ctWRe_0p_ctWIm_0p'
p105
I154
sS'cHG_0p_cHGtil_0p_cHj1_0p_cHj3_0p_cHu_0p_cHd_0p_cHQ3_0p_cHtbRe_0p_cHtbIm_0p_cHW_0p_cHWtil_0p_cHB_1p_cHBtil_0p_cHWB_0p_cHWBtil_0p_cHbox_1p_cHDD_0p_cHl3_0p_cll1_0p_cG_0p_cGtil_0p_ctGRe_0p_ctGIm_0p_ctWRe_0p_ctWIm_0p'
p106
I250
sS'cHG_0p_cHGtil_0p_cHj1_0p_cHj3_0p_cHu_0p_cHd_0p_cHQ3_0p_cHtbRe_0p_cHtbIm_0p_cHW_0p_cHWtil_1p_cHB_0p_cHBtil_0p_cHWB_0p_cHWBtil_0p_cHbox_0p_cHDD_0p_cHl3_0p_cll1_0p_cG_0p_cGtil_0p_ctGRe_0p_ctGIm_0p_ctWRe_0p_ctWIm_0p'
p107
I11
sS'cHG_0p_cHGtil_0p_cHj1_1p_cHj3_0p_cHu_0p_cHd_0p_cHQ3_0p_cHtbRe_0p_cHtbIm_0p_cHW_0p_cHWtil_0p_cHB_0p_cHBtil_0p_cHWB_0p_cHWBtil_0p_cHbox_0p_cHDD_0p_cHl3_0p_cll1_1p_cG_0p_cGtil_0p_ctGRe_0p_ctGIm_0p_ctWRe_0p_ctWIm_0p'
p108
I91
sS'cHG_0p_cHGtil_0p_cHj1_0p_cHj3_0p_cHu_0p_cHd_0p_cHQ3_0p_cHtbRe_0p_cHtbIm_0p_cHW_0p_cHWtil_1p_cHB_0p_cHBtil_0p_cHWB_0p_cHWBtil_0p_cHbox_1p_cHDD_0p_cHl3_0p_cll1_0p_cG_0p_cGtil_0p_ctGRe_0p_ctGIm_0p_ctWRe_0p_ctWIm_0p'
p109
I236
sS'cHG_0p_cHGtil_0p_cHj1_0p_cHj3_0p_cHu_0p_cHd_0p_cHQ3_0p_cHtbRe_0p_cHtbIm_0p_cHW_0p_cHWtil_0p_cHB_0p_cHBtil_0p_cHWB_0p_cHWBtil_0p_cHbox_0p_cHDD_0p_cHl3_0p_cll1_0p_cG_0p_cGtil_0p_ctGRe_2p_ctGIm_0p_ctWRe_0p_ctWIm_0p'
p110
I341
sS'cHG_0p_cHGtil_1p_cHj1_0p_cHj3_0p_cHu_0p_cHd_0p_cHQ3_0p_cHtbRe_0p_cHtbIm_0p_cHW_0p_cHWtil_0p_cHB_0p_cHBtil_0p_cHWB_0p_cHWBtil_0p_cHbox_0p_cHDD_0p_cHl3_0p_cll1_0p_cG_0p_cGtil_0p_ctGRe_0p_ctGIm_1p_ctWRe_0p_ctWIm_0p'
p111
I72
sS'cHG_0p_cHGtil_0p_cHj1_1p_cHj3_0p_cHu_0p_cHd_0p_cHQ3_0p_cHtbRe_0p_cHtbIm_0p_cHW_0p_cHWtil_0p_cHB_0p_cHBtil_0p_cHWB_0p_cHWBtil_0p_cHbox_0p_cHDD_0p_cHl3_0p_cll1_0p_cG_0p_cGtil_0p_ctGRe_0p_ctGIm_0p_ctWRe_0p_ctWIm_0p'
p112
I3
sS'cHG_0p_cHGtil_0p_cHj1_0p_cHj3_0p_cHu_0p_cHd_0p_cHQ3_1p_cHtbRe_0p_cHtbIm_0p_cHW_0p_cHWtil_0p_cHB_0p_cHBtil_0p_cHWB_0p_cHWBtil_0p_cHbox_1p_cHDD_0p_cHl3_0p_cll1_0p_cG_0p_cGtil_0p_ctGRe_0p_ctGIm_0p_ctWRe_0p_ctWIm_0p'
p113
I170
sS'cHG_0p_cHGtil_0p_cHj1_0p_cHj3_0p_cHu_0p_cHd_0p_cHQ3_1p_cHtbRe_0p_cHtbIm_0p_cHW_0p_cHWtil_0p_cHB_0p_cHBtil_0p_cHWB_0p_cHWBtil_0p_cHbox_0p_cHDD_0p_cHl3_0p_cll1_0p_cG_0p_cGtil_0p_ctGRe_0p_ctGIm_1p_ctWRe_0p_ctWIm_0p'
p114
I177
sS'cHG_0p_cHGtil_0p_cHj1_0p_cHj3_0p_cHu_0p_cHd_0p_cHQ3_0p_cHtbRe_0p_cHtbIm_0p_cHW_0p_cHWtil_0p_cHB_0p_cHBtil_0p_cHWB_0p_cHWBtil_0p_cHbox_0p_cHDD_0p_cHl3_0p_cll1_0p_cG_0p_cGtil_0p_ctGRe_0p_ctGIm_0p_ctWRe_2p_ctWIm_0p'
p115
I348
sS'cHG_0p_cHGtil_0p_cHj1_0p_cHj3_0p_cHu_0p_cHd_0p_cHQ3_2p_cHtbRe_0p_cHtbIm_0p_cHW_0p_cHWtil_0p_cHB_0p_cHBtil_0p_cHWB_0p_cHWBtil_0p_cHbox_0p_cHDD_0p_cHl3_0p_cll1_0p_cG_0p_cGtil_0p_ctGRe_0p_ctGIm_0p_ctWRe_0p_ctWIm_0p'
p116
I161
sS'cHG_0p_cHGtil_0p_cHj1_0p_cHj3_0p_cHu_0p_cHd_0p_cHQ3_0p_cHtbRe_0p_cHtbIm_0p_cHW_0p_cHWtil_0p_cHB_0p_cHBtil_1p_cHWB_0p_cHWBtil_0p_cHbox_0p_cHDD_0p_cHl3_0p_cll1_0p_cG_0p_cGtil_0p_ctGRe_0p_ctGIm_0p_ctWRe_0p_ctWIm_1p'
p117
I272
sS'cHG_0p_cHGtil_0p_cHj1_0p_cHj3_0p_cHu_0p_cHd_0p_cHQ3_0p_cHtbRe_0p_cHtbIm_0p_cHW_0p_cHWtil_0p_cHB_0p_cHBtil_0p_cHWB_0p_cHWBtil_0p_cHbox_0p_cHDD_0p_cHl3_0p_cll1_0p_cG_0p_cGtil_0p_ctGRe_0p_ctGIm_0p_ctWRe_0p_ctWIm_1p'
p118
I25
sS'cHG_0p_cHGtil_0p_cHj1_0p_cHj3_0p_cHu_0p_cHd_0p_cHQ3_0p_cHtbRe_0p_cHtbIm_0p_cHW_0p_cHWtil_0p_cHB_0p_cHBtil_0p_cHWB_0p_cHWBtil_0p_cHbox_1p_cHDD_0p_cHl3_1p_cll1_0p_cG_0p_cGtil_0p_ctGRe_0p_ctGIm_0p_ctWRe_0p_ctWIm_0p'
p119
I298
sS'cHG_0p_cHGtil_0p_cHj1_0p_cHj3_0p_cHu_0p_cHd_0p_cHQ3_0p_cHtbRe_0p_cHtbIm_0p_cHW_0p_cHWtil_0p_cHB_0p_cHBtil_0p_cHWB_0p_cHWBtil_0p_cHbox_0p_cHDD_0p_cHl3_1p_cll1_0p_cG_0p_cGtil_1p_ctGRe_0p_ctGIm_0p_ctWRe_0p_ctWIm_0p'
p120
I318
sS'cHG_0p_cHGtil_0p_cHj1_0p_cHj3_0p_cHu_0p_cHd_0p_cHQ3_0p_cHtbRe_0p_cHtbIm_1p_cHW_0p_cHWtil_0p_cHB_0p_cHBtil_0p_cHWB_0p_cHWBtil_0p_cHbox_0p_cHDD_0p_cHl3_1p_cll1_0p_cG_0p_cGtil_0p_ctGRe_0p_ctGIm_0p_ctWRe_0p_ctWIm_0p'
p121
I207
sS'cHG_0p_cHGtil_0p_cHj1_0p_cHj3_0p_cHu_0p_cHd_0p_cHQ3_1p_cHtbRe_0p_cHtbIm_0p_cHW_0p_cHWtil_0p_cHB_0p_cHBtil_0p_cHWB_0p_cHWBtil_1p_cHbox_0p_cHDD_0p_cHl3_0p_cll1_0p_cG_0p_cGtil_0p_ctGRe_0p_ctGIm_0p_ctWRe_0p_ctWIm_0p'
p122
I169
sS'cHG_0p_cHGtil_1p_cHj1_0p_cHj3_1p_cHu_0p_cHd_0p_cHQ3_0p_cHtbRe_0p_cHtbIm_0p_cHW_0p_cHWtil_0p_cHB_0p_cHBtil_0p_cHWB_0p_cHWBtil_0p_cHbox_0p_cHDD_0p_cHl3_0p_cll1_0p_cG_0p_cGtil_0p_ctGRe_0p_ctGIm_0p_ctWRe_0p_ctWIm_0p'
p123
I53
sS'cHG_0p_cHGtil_0p_cHj1_0p_cHj3_0p_cHu_0p_cHd_0p_cHQ3_0p_cHtbRe_0p_cHtbIm_0p_cHW_0p_cHWtil_2p_cHB_0p_cHBtil_0p_cHWB_0p_cHWBtil_0p_cHbox_0p_cHDD_0p_cHl3_0p_cll1_0p_cG_0p_cGtil_0p_ctGRe_0p_ctGIm_0p_ctWRe_0p_ctWIm_0p'
p124
I231
sS'cHG_0p_cHGtil_0p_cHj1_0p_cHj3_1p_cHu_0p_cHd_0p_cHQ3_0p_cHtbRe_0p_cHtbIm_0p_cHW_0p_cHWtil_0p_cHB_0p_cHBtil_0p_cHWB_0p_cHWBtil_0p_cHbox_0p_cHDD_0p_cHl3_0p_cll1_1p_cG_0p_cGtil_0p_ctGRe_0p_ctGIm_0p_ctWRe_0p_ctWIm_0p'
p125
I113
sS'cHG_0p_cHGtil_0p_cHj1_0p_cHj3_0p_cHu_0p_cHd_0p_cHQ3_0p_cHtbRe_0p_cHtbIm_0p_cHW_0p_cHWtil_1p_cHB_0p_cHBtil_1p_cHWB_0p_cHWBtil_0p_cHbox_0p_cHDD_0p_cHl3_0p_cll1_0p_cG_0p_cGtil_0p_ctGRe_0p_ctGIm_0p_ctWRe_0p_ctWIm_0p'
p126
I233
sS'cHG_1p_cHGtil_0p_cHj1_0p_cHj3_0p_cHu_0p_cHd_0p_cHQ3_0p_cHtbRe_1p_cHtbIm_0p_cHW_0p_cHWtil_0p_cHB_0p_cHBtil_0p_cHWB_0p_cHWBtil_0p_cHbox_0p_cHDD_0p_cHl3_0p_cll1_0p_cG_0p_cGtil_0p_ctGRe_0p_ctGIm_0p_ctWRe_0p_ctWIm_0p'
p127
I33
sS'cHG_0p_cHGtil_0p_cHj1_0p_cHj3_0p_cHu_0p_cHd_1p_cHQ3_1p_cHtbRe_0p_cHtbIm_0p_cHW_0p_cHWtil_0p_cHB_0p_cHBtil_0p_cHWB_0p_cHWBtil_0p_cHbox_0p_cHDD_0p_cHl3_0p_cll1_0p_cG_0p_cGtil_0p_ctGRe_0p_ctGIm_0p_ctWRe_0p_ctWIm_0p'
p128
I142
sS'cHG_0p_cHGtil_0p_cHj1_0p_cHj3_0p_cHu_0p_cHd_0p_cHQ3_1p_cHtbRe_0p_cHtbIm_0p_cHW_0p_cHWtil_1p_cHB_0p_cHBtil_0p_cHWB_0p_cHWBtil_0p_cHbox_0p_cHDD_0p_cHl3_0p_cll1_0p_cG_0p_cGtil_0p_ctGRe_0p_ctGIm_0p_ctWRe_0p_ctWIm_0p'
p129
I165
sS'cHG_0p_cHGtil_0p_cHj1_0p_cHj3_0p_cHu_0p_cHd_1p_cHQ3_0p_cHtbRe_0p_cHtbIm_0p_cHW_0p_cHWtil_0p_cHB_0p_cHBtil_0p_cHWB_0p_cHWBtil_0p_cHbox_1p_cHDD_0p_cHl3_0p_cll1_0p_cG_0p_cGtil_0p_ctGRe_0p_ctGIm_0p_ctWRe_0p_ctWIm_0p'
p130
I151
sS'cHG_0p_cHGtil_0p_cHj1_0p_cHj3_0p_cHu_0p_cHd_0p_cHQ3_0p_cHtbRe_1p_cHtbIm_0p_cHW_0p_cHWtil_0p_cHB_0p_cHBtil_0p_cHWB_0p_cHWBtil_0p_cHbox_0p_cHDD_0p_cHl3_0p_cll1_0p_cG_0p_cGtil_0p_ctGRe_0p_ctGIm_0p_ctWRe_0p_ctWIm_1p'
p131
I197
sS'cHG_0p_cHGtil_0p_cHj1_0p_cHj3_0p_cHu_0p_cHd_0p_cHQ3_0p_cHtbRe_0p_cHtbIm_1p_cHW_0p_cHWtil_0p_cHB_0p_cHBtil_0p_cHWB_0p_cHWBtil_0p_cHbox_0p_cHDD_1p_cHl3_0p_cll1_0p_cG_0p_cGtil_0p_ctGRe_0p_ctGIm_0p_ctWRe_0p_ctWIm_0p'
p132
I206
sS'cHG_0p_cHGtil_0p_cHj1_0p_cHj3_0p_cHu_0p_cHd_0p_cHQ3_0p_cHtbRe_0p_cHtbIm_0p_cHW_0p_cHWtil_0p_cHB_0p_cHBtil_2p_cHWB_0p_cHWBtil_0p_cHbox_0p_cHDD_0p_cHl3_0p_cll1_0p_cG_0p_cGtil_0p_ctGRe_0p_ctGIm_0p_ctWRe_0p_ctWIm_0p'
p133
I260
sS'cHG_0p_cHGtil_0p_cHj1_0p_cHj3_0p_cHu_0p_cHd_0p_cHQ3_0p_cHtbRe_0p_cHtbIm_0p_cHW_0p_cHWtil_0p_cHB_1p_cHBtil_0p_cHWB_0p_cHWBtil_0p_cHbox_0p_cHDD_0p_cHl3_0p_cll1_1p_cG_0p_cGtil_0p_ctGRe_0p_ctGIm_0p_ctWRe_0p_ctWIm_0p'
p134
I253
sS'cHG_0p_cHGtil_1p_cHj1_0p_cHj3_0p_cHu_0p_cHd_0p_cHQ3_0p_cHtbRe_0p_cHtbIm_0p_cHW_0p_cHWtil_0p_cHB_0p_cHBtil_0p_cHWB_0p_cHWBtil_0p_cHbox_0p_cHDD_0p_cHl3_0p_cll1_0p_cG_0p_cGtil_0p_ctGRe_0p_ctGIm_0p_ctWRe_0p_ctWIm_1p'
p135
I74
sS'cHG_0p_cHGtil_0p_cHj1_0p_cHj3_0p_cHu_0p_cHd_0p_cHQ3_1p_cHtbRe_0p_cHtbIm_0p_cHW_0p_cHWtil_0p_cHB_0p_cHBtil_0p_cHWB_0p_cHWBtil_0p_cHbox_0p_cHDD_0p_cHl3_0p_cll1_0p_cG_0p_cGtil_0p_ctGRe_0p_ctGIm_0p_ctWRe_0p_ctWIm_1p'
p136
I179
sS'cHG_0p_cHGtil_0p_cHj1_0p_cHj3_0p_cHu_0p_cHd_0p_cHQ3_0p_cHtbRe_0p_cHtbIm_0p_cHW_0p_cHWtil_0p_cHB_0p_cHBtil_0p_cHWB_0p_cHWBtil_0p_cHbox_0p_cHDD_0p_cHl3_0p_cll1_0p_cG_0p_cGtil_0p_ctGRe_1p_ctGIm_0p_ctWRe_1p_ctWIm_0p'
p137
I343
sS'cHG_0p_cHGtil_0p_cHj1_0p_cHj3_0p_cHu_0p_cHd_0p_cHQ3_0p_cHtbRe_0p_cHtbIm_0p_cHW_0p_cHWtil_1p_cHB_0p_cHBtil_0p_cHWB_0p_cHWBtil_0p_cHbox_0p_cHDD_0p_cHl3_0p_cll1_0p_cG_0p_cGtil_0p_ctGRe_0p_ctGIm_1p_ctWRe_0p_ctWIm_0p'
p138
I243
sS'cHG_0p_cHGtil_0p_cHj1_0p_cHj3_0p_cHu_1p_cHd_0p_cHQ3_0p_cHtbRe_0p_cHtbIm_0p_cHW_0p_cHWtil_0p_cHB_0p_cHBtil_0p_cHWB_0p_cHWBtil_0p_cHbox_0p_cHDD_0p_cHl3_0p_cll1_0p_cG_0p_cGtil_1p_ctGRe_0p_ctGIm_0p_ctWRe_0p_ctWIm_0p'
p139
I136
sS'cHG_0p_cHGtil_0p_cHj1_1p_cHj3_0p_cHu_0p_cHd_0p_cHQ3_0p_cHtbRe_0p_cHtbIm_0p_cHW_0p_cHWtil_1p_cHB_0p_cHBtil_0p_cHWB_0p_cHWBtil_0p_cHbox_0p_cHDD_0p_cHl3_0p_cll1_0p_cG_0p_cGtil_0p_ctGRe_0p_ctGIm_0p_ctWRe_0p_ctWIm_0p'
p140
I83
sS'cHG_0p_cHGtil_0p_cHj1_0p_cHj3_0p_cHu_0p_cHd_1p_cHQ3_0p_cHtbRe_0p_cHtbIm_0p_cHW_0p_cHWtil_1p_cHB_0p_cHBtil_0p_cHWB_0p_cHWBtil_0p_cHbox_0p_cHDD_0p_cHl3_0p_cll1_0p_cG_0p_cGtil_0p_ctGRe_0p_ctGIm_0p_ctWRe_0p_ctWIm_0p'
p141
I146
sS'cHG_0p_cHGtil_0p_cHj1_0p_cHj3_1p_cHu_0p_cHd_0p_cHQ3_0p_cHtbRe_0p_cHtbIm_0p_cHW_0p_cHWtil_0p_cHB_0p_cHBtil_0p_cHWB_0p_cHWBtil_0p_cHbox_0p_cHDD_0p_cHl3_0p_cll1_0p_cG_0p_cGtil_0p_ctGRe_1p_ctGIm_0p_ctWRe_0p_ctWIm_0p'
p142
I116
sS'cHG_0p_cHGtil_1p_cHj1_0p_cHj3_0p_cHu_0p_cHd_0p_cHQ3_0p_cHtbRe_0p_cHtbIm_0p_cHW_0p_cHWtil_0p_cHB_1p_cHBtil_0p_cHWB_0p_cHWBtil_0p_cHbox_0p_cHDD_0p_cHl3_0p_cll1_0p_cG_0p_cGtil_0p_ctGRe_0p_ctGIm_0p_ctWRe_0p_ctWIm_0p'
p143
I61
sS'cHG_0p_cHGtil_1p_cHj1_0p_cHj3_0p_cHu_0p_cHd_0p_cHQ3_0p_cHtbRe_0p_cHtbIm_0p_cHW_0p_cHWtil_0p_cHB_0p_cHBtil_0p_cHWB_0p_cHWBtil_0p_cHbox_0p_cHDD_0p_cHl3_0p_cll1_1p_cG_0p_cGtil_0p_ctGRe_0p_ctGIm_0p_ctWRe_0p_ctWIm_0p'
p144
I68
sS'cHG_0p_cHGtil_0p_cHj1_0p_cHj3_0p_cHu_0p_cHd_1p_cHQ3_0p_cHtbRe_0p_cHtbIm_0p_cHW_0p_cHWtil_0p_cHB_0p_cHBtil_0p_cHWB_0p_cHWBtil_1p_cHbox_0p_cHDD_0p_cHl3_0p_cll1_0p_cG_0p_cGtil_0p_ctGRe_0p_ctGIm_0p_ctWRe_0p_ctWIm_0p'
p145
I150
sS'cHG_0p_cHGtil_0p_cHj1_0p_cHj3_0p_cHu_0p_cHd_0p_cHQ3_0p_cHtbRe_0p_cHtbIm_0p_cHW_0p_cHWtil_0p_cHB_0p_cHBtil_0p_cHWB_0p_cHWBtil_0p_cHbox_0p_cHDD_0p_cHl3_0p_cll1_0p_cG_1p_cGtil_0p_ctGRe_1p_ctGIm_0p_ctWRe_0p_ctWIm_0p'
p146
I332
sS'cHG_0p_cHGtil_0p_cHj1_0p_cHj3_0p_cHu_0p_cHd_0p_cHQ3_0p_cHtbRe_0p_cHtbIm_0p_cHW_0p_cHWtil_0p_cHB_1p_cHBtil_0p_cHWB_1p_cHWBtil_0p_cHbox_0p_cHDD_0p_cHl3_0p_cll1_0p_cG_0p_cGtil_0p_ctGRe_0p_ctGIm_0p_ctWRe_0p_ctWIm_0p'
p147
I248
sS'cHG_0p_cHGtil_0p_cHj1_0p_cHj3_0p_cHu_0p_cHd_0p_cHQ3_0p_cHtbRe_2p_cHtbIm_0p_cHW_0p_cHWtil_0p_cHB_0p_cHBtil_0p_cHWB_0p_cHWBtil_0p_cHbox_0p_cHDD_0p_cHl3_0p_cll1_0p_cG_0p_cGtil_0p_ctGRe_0p_ctGIm_0p_ctWRe_0p_ctWIm_0p'
p148
I180
sS'cHG_0p_cHGtil_0p_cHj1_0p_cHj3_0p_cHu_0p_cHd_0p_cHQ3_0p_cHtbRe_0p_cHtbIm_0p_cHW_0p_cHWtil_0p_cHB_0p_cHBtil_0p_cHWB_0p_cHWBtil_1p_cHbox_0p_cHDD_0p_cHl3_0p_cll1_0p_cG_0p_cGtil_0p_ctGRe_0p_ctGIm_0p_ctWRe_0p_ctWIm_0p'
p149
I15
sS'cHG_0p_cHGtil_0p_cHj1_0p_cHj3_0p_cHu_0p_cHd_0p_cHQ3_0p_cHtbRe_1p_cHtbIm_0p_cHW_0p_cHWtil_0p_cHB_0p_cHBtil_0p_cHWB_0p_cHWBtil_0p_cHbox_0p_cHDD_0p_cHl3_0p_cll1_0p_cG_0p_cGtil_1p_ctGRe_0p_ctGIm_0p_ctWRe_0p_ctWIm_0p'
p150
I193
sS'cHG_0p_cHGtil_0p_cHj1_0p_cHj3_0p_cHu_0p_cHd_0p_cHQ3_1p_cHtbRe_0p_cHtbIm_0p_cHW_0p_cHWtil_0p_cHB_0p_cHBtil_0p_cHWB_0p_cHWBtil_0p_cHbox_0p_cHDD_1p_cHl3_0p_cll1_0p_cG_0p_cGtil_0p_ctGRe_0p_ctGIm_0p_ctWRe_0p_ctWIm_0p'
p151
I171
sS'cHG_0p_cHGtil_0p_cHj1_0p_cHj3_0p_cHu_0p_cHd_1p_cHQ3_0p_cHtbRe_0p_cHtbIm_0p_cHW_0p_cHWtil_0p_cHB_1p_cHBtil_0p_cHWB_0p_cHWBtil_0p_cHbox_0p_cHDD_0p_cHl3_0p_cll1_0p_cG_0p_cGtil_0p_ctGRe_0p_ctGIm_0p_ctWRe_0p_ctWIm_0p'
p152
I147
sS'cHG_0p_cHGtil_0p_cHj1_0p_cHj3_0p_cHu_0p_cHd_0p_cHQ3_0p_cHtbRe_0p_cHtbIm_0p_cHW_0p_cHWtil_0p_cHB_0p_cHBtil_0p_cHWB_0p_cHWBtil_0p_cHbox_0p_cHDD_0p_cHl3_0p_cll1_0p_cG_0p_cGtil_1p_ctGRe_0p_ctGIm_0p_ctWRe_0p_ctWIm_0p'
p153
I21
sS'cHG_0p_cHGtil_0p_cHj1_0p_cHj3_0p_cHu_1p_cHd_0p_cHQ3_0p_cHtbRe_0p_cHtbIm_1p_cHW_0p_cHWtil_0p_cHB_0p_cHBtil_0p_cHWB_0p_cHWBtil_0p_cHbox_0p_cHDD_0p_cHl3_0p_cll1_0p_cG_0p_cGtil_0p_ctGRe_0p_ctGIm_0p_ctWRe_0p_ctWIm_0p'
p154
I124
sS'cHG_1p_cHGtil_0p_cHj1_0p_cHj3_0p_cHu_0p_cHd_0p_cHQ3_0p_cHtbRe_0p_cHtbIm_0p_cHW_0p_cHWtil_0p_cHB_0p_cHBtil_0p_cHWB_0p_cHWBtil_0p_cHbox_0p_cHDD_0p_cHl3_0p_cll1_0p_cG_0p_cGtil_0p_ctGRe_0p_ctGIm_1p_ctWRe_0p_ctWIm_0p'
p155
I48
sS'cHG_0p_cHGtil_0p_cHj1_0p_cHj3_1p_cHu_0p_cHd_0p_cHQ3_1p_cHtbRe_0p_cHtbIm_0p_cHW_0p_cHWtil_0p_cHB_0p_cHBtil_0p_cHWB_0p_cHWBtil_0p_cHbox_0p_cHDD_0p_cHl3_0p_cll1_0p_cG_0p_cGtil_0p_ctGRe_0p_ctGIm_0p_ctWRe_0p_ctWIm_0p'
p156
I101
sS'cHG_0p_cHGtil_0p_cHj1_0p_cHj3_0p_cHu_0p_cHd_0p_cHQ3_0p_cHtbRe_0p_cHtbIm_0p_cHW_0p_cHWtil_0p_cHB_0p_cHBtil_0p_cHWB_0p_cHWBtil_1p_cHbox_1p_cHDD_0p_cHl3_0p_cll1_0p_cG_0p_cGtil_0p_ctGRe_0p_ctGIm_0p_ctWRe_0p_ctWIm_0p'
p157
I286
sS'cHG_0p_cHGtil_0p_cHj1_0p_cHj3_0p_cHu_0p_cHd_0p_cHQ3_0p_cHtbRe_0p_cHtbIm_0p_cHW_0p_cHWtil_0p_cHB_0p_cHBtil_0p_cHWB_0p_cHWBtil_0p_cHbox_1p_cHDD_0p_cHl3_0p_cll1_0p_cG_1p_cGtil_0p_ctGRe_0p_ctGIm_0p_ctWRe_0p_ctWIm_0p'
p158
I300
sS'cHG_0p_cHGtil_0p_cHj1_0p_cHj3_0p_cHu_0p_cHd_0p_cHQ3_0p_cHtbRe_0p_cHtbIm_0p_cHW_0p_cHWtil_0p_cHB_0p_cHBtil_1p_cHWB_0p_cHWBtil_0p_cHbox_0p_cHDD_0p_cHl3_1p_cll1_0p_cG_0p_cGtil_0p_ctGRe_0p_ctGIm_0p_ctWRe_0p_ctWIm_0p'
p159
I265
sS'cHG_0p_cHGtil_0p_cHj1_0p_cHj3_0p_cHu_0p_cHd_0p_cHQ3_0p_cHtbRe_0p_cHtbIm_0p_cHW_0p_cHWtil_0p_cHB_0p_cHBtil_0p_cHWB_0p_cHWBtil_0p_cHbox_1p_cHDD_0p_cHl3_0p_cll1_0p_cG_0p_cGtil_0p_ctGRe_0p_ctGIm_0p_ctWRe_0p_ctWIm_1p'
p160
I305
sS'cHG_0p_cHGtil_0p_cHj1_0p_cHj3_0p_cHu_0p_cHd_0p_cHQ3_1p_cHtbRe_0p_cHtbIm_0p_cHW_0p_cHWtil_0p_cHB_1p_cHBtil_0p_cHWB_0p_cHWBtil_0p_cHbox_0p_cHDD_0p_cHl3_0p_cll1_0p_cG_0p_cGtil_0p_ctGRe_0p_ctGIm_0p_ctWRe_0p_ctWIm_0p'
p161
I166
sS'cHG_0p_cHGtil_0p_cHj1_0p_cHj3_0p_cHu_0p_cHd_0p_cHQ3_0p_cHtbRe_1p_cHtbIm_0p_cHW_0p_cHWtil_0p_cHB_0p_cHBtil_1p_cHWB_0p_cHWBtil_0p_cHbox_0p_cHDD_0p_cHl3_0p_cll1_0p_cG_0p_cGtil_0p_ctGRe_0p_ctGIm_0p_ctWRe_0p_ctWIm_0p'
p162
I185
sS'cHG_0p_cHGtil_0p_cHj1_0p_cHj3_0p_cHu_0p_cHd_0p_cHQ3_0p_cHtbRe_0p_cHtbIm_0p_cHW_0p_cHWtil_0p_cHB_1p_cHBtil_0p_cHWB_0p_cHWBtil_1p_cHbox_0p_cHDD_0p_cHl3_0p_cll1_0p_cG_0p_cGtil_0p_ctGRe_0p_ctGIm_0p_ctWRe_0p_ctWIm_0p'
p163
I249
sS'cHG_0p_cHGtil_0p_cHj1_0p_cHj3_0p_cHu_0p_cHd_0p_cHQ3_0p_cHtbRe_0p_cHtbIm_0p_cHW_1p_cHWtil_0p_cHB_0p_cHBtil_0p_cHWB_0p_cHWBtil_0p_cHbox_0p_cHDD_0p_cHl3_0p_cll1_1p_cG_0p_cGtil_0p_ctGRe_0p_ctGIm_0p_ctWRe_0p_ctWIm_0p'
p164
I224
sS'cHG_0p_cHGtil_0p_cHj1_0p_cHj3_0p_cHu_0p_cHd_0p_cHQ3_0p_cHtbRe_0p_cHtbIm_0p_cHW_0p_cHWtil_0p_cHB_0p_cHBtil_0p_cHWB_0p_cHWBtil_0p_cHbox_0p_cHDD_1p_cHl3_1p_cll1_0p_cG_0p_cGtil_0p_ctGRe_0p_ctGIm_0p_ctWRe_0p_ctWIm_0p'
p165
I307
sS'cHG_0p_cHGtil_0p_cHj1_1p_cHj3_0p_cHu_0p_cHd_0p_cHQ3_0p_cHtbRe_0p_cHtbIm_0p_cHW_0p_cHWtil_0p_cHB_0p_cHBtil_0p_cHWB_0p_cHWBtil_0p_cHbox_0p_cHDD_0p_cHl3_0p_cll1_0p_cG_0p_cGtil_0p_ctGRe_0p_ctGIm_1p_ctWRe_0p_ctWIm_0p'
p166
I95
sS'cHG_0p_cHGtil_0p_cHj1_0p_cHj3_0p_cHu_0p_cHd_0p_cHQ3_0p_cHtbRe_0p_cHtbIm_1p_cHW_0p_cHWtil_0p_cHB_0p_cHBtil_0p_cHWB_1p_cHWBtil_0p_cHbox_0p_cHDD_0p_cHl3_0p_cll1_0p_cG_0p_cGtil_0p_ctGRe_0p_ctGIm_0p_ctWRe_0p_ctWIm_0p'
p167
I203
sS'cHG_0p_cHGtil_0p_cHj1_0p_cHj3_0p_cHu_0p_cHd_0p_cHQ3_1p_cHtbRe_0p_cHtbIm_0p_cHW_1p_cHWtil_0p_cHB_0p_cHBtil_0p_cHWB_0p_cHWBtil_0p_cHbox_0p_cHDD_0p_cHl3_0p_cll1_0p_cG_0p_cGtil_0p_ctGRe_0p_ctGIm_0p_ctWRe_0p_ctWIm_0p'
p168
I164
sS'cHG_0p_cHGtil_1p_cHj1_0p_cHj3_0p_cHu_0p_cHd_0p_cHQ3_0p_cHtbRe_1p_cHtbIm_0p_cHW_0p_cHWtil_0p_cHB_0p_cHBtil_0p_cHWB_0p_cHWBtil_0p_cHbox_0p_cHDD_0p_cHl3_0p_cll1_0p_cG_0p_cGtil_0p_ctGRe_0p_ctGIm_0p_ctWRe_0p_ctWIm_0p'
p169
I57
sS'cHG_1p_cHGtil_0p_cHj1_0p_cHj3_0p_cHu_0p_cHd_0p_cHQ3_0p_cHtbRe_0p_cHtbIm_0p_cHW_0p_cHWtil_0p_cHB_0p_cHBtil_0p_cHWB_0p_cHWBtil_0p_cHbox_0p_cHDD_1p_cHl3_0p_cll1_0p_cG_0p_cGtil_0p_ctGRe_0p_ctGIm_0p_ctWRe_0p_ctWIm_0p'
p170
I42
sS'cHG_1p_cHGtil_0p_cHj1_0p_cHj3_1p_cHu_0p_cHd_0p_cHQ3_0p_cHtbRe_0p_cHtbIm_0p_cHW_0p_cHWtil_0p_cHB_0p_cHBtil_0p_cHWB_0p_cHWBtil_0p_cHbox_0p_cHDD_0p_cHl3_0p_cll1_0p_cG_0p_cGtil_0p_ctGRe_0p_ctGIm_0p_ctWRe_0p_ctWIm_0p'
p171
I29
sS'cHG_0p_cHGtil_0p_cHj1_0p_cHj3_0p_cHu_0p_cHd_1p_cHQ3_0p_cHtbRe_0p_cHtbIm_0p_cHW_0p_cHWtil_0p_cHB_0p_cHBtil_1p_cHWB_0p_cHWBtil_0p_cHbox_0p_cHDD_0p_cHl3_0p_cll1_0p_cG_0p_cGtil_0p_ctGRe_0p_ctGIm_0p_ctWRe_0p_ctWIm_0p'
p172
I148
sS'cHG_0p_cHGtil_0p_cHj1_0p_cHj3_0p_cHu_0p_cHd_0p_cHQ3_0p_cHtbRe_0p_cHtbIm_0p_cHW_0p_cHWtil_0p_cHB_0p_cHBtil_0p_cHWB_0p_cHWBtil_0p_cHbox_0p_cHDD_0p_cHl3_0p_cll1_0p_cG_0p_cGtil_0p_ctGRe_0p_ctGIm_0p_ctWRe_0p_ctWIm_0p'
p173
I0
sS'cHG_0p_cHGtil_0p_cHj1_0p_cHj3_0p_cHu_0p_cHd_0p_cHQ3_0p_cHtbRe_0p_cHtbIm_0p_cHW_0p_cHWtil_0p_cHB_0p_cHBtil_1p_cHWB_0p_cHWBtil_0p_cHbox_0p_cHDD_0p_cHl3_0p_cll1_1p_cG_0p_cGtil_0p_ctGRe_0p_ctGIm_0p_ctWRe_0p_ctWIm_0p'
p174
I266
sS'cHG_0p_cHGtil_0p_cHj1_0p_cHj3_0p_cHu_0p_cHd_0p_cHQ3_0p_cHtbRe_0p_cHtbIm_0p_cHW_0p_cHWtil_0p_cHB_0p_cHBtil_0p_cHWB_0p_cHWBtil_0p_cHbox_2p_cHDD_0p_cHl3_0p_cll1_0p_cG_0p_cGtil_0p_ctGRe_0p_ctGIm_0p_ctWRe_0p_ctWIm_0p'
p175
I296
sS'cHG_0p_cHGtil_0p_cHj1_0p_cHj3_0p_cHu_0p_cHd_0p_cHQ3_0p_cHtbRe_0p_cHtbIm_0p_cHW_0p_cHWtil_0p_cHB_0p_cHBtil_0p_cHWB_0p_cHWBtil_0p_cHbox_0p_cHDD_1p_cHl3_0p_cll1_0p_cG_1p_cGtil_0p_ctGRe_0p_ctGIm_0p_ctWRe_0p_ctWIm_0p'
p176
I309
sS'cHG_0p_cHGtil_0p_cHj1_0p_cHj3_0p_cHu_1p_cHd_0p_cHQ3_0p_cHtbRe_0p_cHtbIm_0p_cHW_0p_cHWtil_0p_cHB_0p_cHBtil_0p_cHWB_0p_cHWBtil_0p_cHbox_0p_cHDD_0p_cHl3_0p_cll1_0p_cG_0p_cGtil_0p_ctGRe_0p_ctGIm_0p_ctWRe_0p_ctWIm_1p'
p177
I140
sS'cHG_0p_cHGtil_0p_cHj1_0p_cHj3_0p_cHu_0p_cHd_0p_cHQ3_0p_cHtbRe_0p_cHtbIm_0p_cHW_0p_cHWtil_0p_cHB_0p_cHBtil_0p_cHWB_0p_cHWBtil_0p_cHbox_0p_cHDD_0p_cHl3_0p_cll1_0p_cG_0p_cGtil_0p_ctGRe_0p_ctGIm_0p_ctWRe_1p_ctWIm_0p'
p178
I24
sS'cHG_0p_cHGtil_0p_cHj1_0p_cHj3_0p_cHu_0p_cHd_0p_cHQ3_0p_cHtbRe_0p_cHtbIm_0p_cHW_0p_cHWtil_0p_cHB_0p_cHBtil_0p_cHWB_0p_cHWBtil_0p_cHbox_0p_cHDD_0p_cHl3_0p_cll1_0p_cG_0p_cGtil_0p_ctGRe_1p_ctGIm_0p_ctWRe_0p_ctWIm_0p'
p179
I22
sS'cHG_1p_cHGtil_0p_cHj1_0p_cHj3_0p_cHu_0p_cHd_0p_cHQ3_0p_cHtbRe_0p_cHtbIm_0p_cHW_0p_cHWtil_0p_cHB_0p_cHBtil_0p_cHWB_0p_cHWBtil_0p_cHbox_0p_cHDD_0p_cHl3_0p_cll1_0p_cG_0p_cGtil_0p_ctGRe_0p_ctGIm_0p_ctWRe_0p_ctWIm_1p'
p180
I50
sS'cHG_0p_cHGtil_0p_cHj1_0p_cHj3_0p_cHu_0p_cHd_0p_cHQ3_0p_cHtbRe_0p_cHtbIm_0p_cHW_2p_cHWtil_0p_cHB_0p_cHBtil_0p_cHWB_0p_cHWBtil_0p_cHbox_0p_cHDD_0p_cHl3_0p_cll1_0p_cG_0p_cGtil_0p_ctGRe_0p_ctGIm_0p_ctWRe_0p_ctWIm_0p'
p181
I215
sS'cHG_0p_cHGtil_0p_cHj1_0p_cHj3_1p_cHu_0p_cHd_0p_cHQ3_0p_cHtbRe_0p_cHtbIm_0p_cHW_0p_cHWtil_0p_cHB_0p_cHBtil_0p_cHWB_0p_cHWBtil_0p_cHbox_0p_cHDD_0p_cHl3_0p_cll1_0p_cG_0p_cGtil_0p_ctGRe_0p_ctGIm_0p_ctWRe_0p_ctWIm_1p'
p182
I119
sS'cHG_0p_cHGtil_0p_cHj1_0p_cHj3_0p_cHu_0p_cHd_0p_cHQ3_0p_cHtbRe_0p_cHtbIm_0p_cHW_0p_cHWtil_0p_cHB_0p_cHBtil_0p_cHWB_0p_cHWBtil_0p_cHbox_1p_cHDD_0p_cHl3_0p_cll1_0p_cG_0p_cGtil_1p_ctGRe_0p_ctGIm_0p_ctWRe_0p_ctWIm_0p'
p183
I301
sS'cHG_0p_cHGtil_0p_cHj1_0p_cHj3_0p_cHu_0p_cHd_0p_cHQ3_0p_cHtbRe_0p_cHtbIm_1p_cHW_0p_cHWtil_0p_cHB_1p_cHBtil_0p_cHWB_0p_cHWBtil_0p_cHbox_0p_cHDD_0p_cHl3_0p_cll1_0p_cG_0p_cGtil_0p_ctGRe_0p_ctGIm_0p_ctWRe_0p_ctWIm_0p'
p184
I201
sS'cHG_0p_cHGtil_0p_cHj1_0p_cHj3_0p_cHu_0p_cHd_0p_cHQ3_0p_cHtbRe_1p_cHtbIm_0p_cHW_0p_cHWtil_0p_cHB_0p_cHBtil_0p_cHWB_0p_cHWBtil_0p_cHbox_0p_cHDD_0p_cHl3_0p_cll1_0p_cG_0p_cGtil_0p_ctGRe_0p_ctGIm_0p_ctWRe_0p_ctWIm_0p'
p185
I8
sS'cHG_0p_cHGtil_0p_cHj1_0p_cHj3_0p_cHu_0p_cHd_2p_cHQ3_0p_cHtbRe_0p_cHtbIm_0p_cHW_0p_cHWtil_0p_cHB_0p_cHBtil_0p_cHWB_0p_cHWBtil_0p_cHbox_0p_cHDD_0p_cHl3_0p_cll1_0p_cG_0p_cGtil_0p_ctGRe_0p_ctGIm_0p_ctWRe_0p_ctWIm_0p'
p186
I141
sS'cHG_0p_cHGtil_0p_cHj1_0p_cHj3_0p_cHu_0p_cHd_0p_cHQ3_0p_cHtbRe_0p_cHtbIm_0p_cHW_0p_cHWtil_1p_cHB_0p_cHBtil_0p_cHWB_1p_cHWBtil_0p_cHbox_0p_cHDD_0p_cHl3_0p_cll1_0p_cG_0p_cGtil_0p_ctGRe_0p_ctGIm_0p_ctWRe_0p_ctWIm_0p'
p187
I234
sS'cHG_0p_cHGtil_0p_cHj1_0p_cHj3_0p_cHu_0p_cHd_0p_cHQ3_0p_cHtbRe_0p_cHtbIm_0p_cHW_0p_cHWtil_1p_cHB_0p_cHBtil_0p_cHWB_0p_cHWBtil_0p_cHbox_0p_cHDD_0p_cHl3_0p_cll1_0p_cG_0p_cGtil_0p_ctGRe_1p_ctGIm_0p_ctWRe_0p_ctWIm_0p'
p188
I242
sS'cHG_0p_cHGtil_0p_cHj1_0p_cHj3_0p_cHu_0p_cHd_0p_cHQ3_1p_cHtbRe_0p_cHtbIm_0p_cHW_0p_cHWtil_0p_cHB_0p_cHBtil_0p_cHWB_0p_cHWBtil_0p_cHbox_0p_cHDD_0p_cHl3_0p_cll1_0p_cG_0p_cGtil_1p_ctGRe_0p_ctGIm_0p_ctWRe_0p_ctWIm_0p'
p189
I175
sS'cHG_0p_cHGtil_0p_cHj1_0p_cHj3_1p_cHu_0p_cHd_0p_cHQ3_0p_cHtbRe_0p_cHtbIm_0p_cHW_0p_cHWtil_0p_cHB_0p_cHBtil_0p_cHWB_1p_cHWBtil_0p_cHbox_0p_cHDD_0p_cHl3_0p_cll1_0p_cG_0p_cGtil_0p_ctGRe_0p_ctGIm_0p_ctWRe_0p_ctWIm_0p'
p190
I108
sS'cHG_0p_cHGtil_0p_cHj1_0p_cHj3_0p_cHu_0p_cHd_0p_cHQ3_1p_cHtbRe_0p_cHtbIm_0p_cHW_0p_cHWtil_0p_cHB_0p_cHBtil_0p_cHWB_0p_cHWBtil_0p_cHbox_0p_cHDD_0p_cHl3_0p_cll1_0p_cG_0p_cGtil_0p_ctGRe_0p_ctGIm_0p_ctWRe_0p_ctWIm_0p'
p191
I7
sS'cHG_0p_cHGtil_0p_cHj1_0p_cHj3_0p_cHu_1p_cHd_0p_cHQ3_0p_cHtbRe_0p_cHtbIm_0p_cHW_0p_cHWtil_1p_cHB_0p_cHBtil_0p_cHWB_0p_cHWBtil_0p_cHbox_0p_cHDD_0p_cHl3_0p_cll1_0p_cG_0p_cGtil_0p_ctGRe_0p_ctGIm_0p_ctWRe_0p_ctWIm_0p'
p192
I126
sS'cHG_0p_cHGtil_0p_cHj1_0p_cHj3_0p_cHu_0p_cHd_0p_cHQ3_0p_cHtbRe_0p_cHtbIm_0p_cHW_0p_cHWtil_0p_cHB_0p_cHBtil_0p_cHWB_1p_cHWBtil_0p_cHbox_0p_cHDD_0p_cHl3_1p_cll1_0p_cG_0p_cGtil_0p_ctGRe_0p_ctGIm_0p_ctWRe_0p_ctWIm_0p'
p193
I277
sS'cHG_0p_cHGtil_0p_cHj1_0p_cHj3_0p_cHu_0p_cHd_0p_cHQ3_0p_cHtbRe_0p_cHtbIm_0p_cHW_0p_cHWtil_1p_cHB_0p_cHBtil_0p_cHWB_0p_cHWBtil_0p_cHbox_0p_cHDD_1p_cHl3_0p_cll1_0p_cG_0p_cGtil_0p_ctGRe_0p_ctGIm_0p_ctWRe_0p_ctWIm_0p'
p194
I237
sS'cHG_0p_cHGtil_0p_cHj1_0p_cHj3_0p_cHu_0p_cHd_0p_cHQ3_1p_cHtbRe_0p_cHtbIm_0p_cHW_0p_cHWtil_0p_cHB_0p_cHBtil_0p_cHWB_0p_cHWBtil_0p_cHbox_0p_cHDD_0p_cHl3_0p_cll1_0p_cG_0p_cGtil_0p_ctGRe_0p_ctGIm_0p_ctWRe_1p_ctWIm_0p'
p195
I178
sS'cHG_0p_cHGtil_0p_cHj1_0p_cHj3_0p_cHu_0p_cHd_1p_cHQ3_0p_cHtbRe_0p_cHtbIm_0p_cHW_0p_cHWtil_0p_cHB_0p_cHBtil_0p_cHWB_0p_cHWBtil_0p_cHbox_0p_cHDD_0p_cHl3_1p_cll1_0p_cG_0p_cGtil_0p_ctGRe_0p_ctGIm_0p_ctWRe_0p_ctWIm_0p'
p196
I153
sS'cHG_0p_cHGtil_0p_cHj1_1p_cHj3_0p_cHu_0p_cHd_0p_cHQ3_0p_cHtbRe_0p_cHtbIm_0p_cHW_1p_cHWtil_0p_cHB_0p_cHBtil_0p_cHWB_0p_cHWBtil_0p_cHbox_0p_cHDD_0p_cHl3_0p_cll1_0p_cG_0p_cGtil_0p_ctGRe_0p_ctGIm_0p_ctWRe_0p_ctWIm_0p'
p197
I82
sS'cHG_0p_cHGtil_0p_cHj1_0p_cHj3_1p_cHu_0p_cHd_0p_cHQ3_0p_cHtbRe_0p_cHtbIm_0p_cHW_0p_cHWtil_0p_cHB_0p_cHBtil_1p_cHWB_0p_cHWBtil_0p_cHbox_0p_cHDD_0p_cHl3_0p_cll1_0p_cG_0p_cGtil_0p_ctGRe_0p_ctGIm_0p_ctWRe_0p_ctWIm_0p'
p198
I107
sS'cHG_0p_cHGtil_0p_cHj1_0p_cHj3_0p_cHu_0p_cHd_0p_cHQ3_0p_cHtbRe_0p_cHtbIm_0p_cHW_0p_cHWtil_0p_cHB_0p_cHBtil_0p_cHWB_0p_cHWBtil_0p_cHbox_0p_cHDD_0p_cHl3_0p_cll1_0p_cG_0p_cGtil_0p_ctGRe_0p_ctGIm_2p_ctWRe_0p_ctWIm_0p'
p199
I345
sS'cHG_0p_cHGtil_0p_cHj1_0p_cHj3_0p_cHu_0p_cHd_0p_cHQ3_0p_cHtbRe_1p_cHtbIm_0p_cHW_0p_cHWtil_0p_cHB_0p_cHBtil_0p_cHWB_0p_cHWBtil_0p_cHbox_1p_cHDD_0p_cHl3_0p_cll1_0p_cG_0p_cGtil_0p_ctGRe_0p_ctGIm_0p_ctWRe_0p_ctWIm_0p'
p200
I188
sS'cHG_0p_cHGtil_0p_cHj1_0p_cHj3_0p_cHu_0p_cHd_0p_cHQ3_0p_cHtbRe_0p_cHtbIm_0p_cHW_0p_cHWtil_0p_cHB_0p_cHBtil_0p_cHWB_0p_cHWBtil_1p_cHbox_0p_cHDD_0p_cHl3_0p_cll1_0p_cG_0p_cGtil_0p_ctGRe_1p_ctGIm_0p_ctWRe_0p_ctWIm_0p'
p201
I292
sS'cHG_0p_cHGtil_0p_cHj1_0p_cHj3_2p_cHu_0p_cHd_0p_cHQ3_0p_cHtbRe_0p_cHtbIm_0p_cHW_0p_cHWtil_0p_cHB_0p_cHBtil_0p_cHWB_0p_cHWBtil_0p_cHbox_0p_cHDD_0p_cHl3_0p_cll1_0p_cG_0p_cGtil_0p_ctGRe_0p_ctGIm_0p_ctWRe_0p_ctWIm_0p'
p202
I98
sS'cHG_1p_cHGtil_0p_cHj1_0p_cHj3_0p_cHu_0p_cHd_0p_cHQ3_0p_cHtbRe_0p_cHtbIm_0p_cHW_0p_cHWtil_0p_cHB_0p_cHBtil_0p_cHWB_0p_cHWBtil_0p_cHbox_0p_cHDD_0p_cHl3_0p_cll1_0p_cG_0p_cGtil_0p_ctGRe_0p_ctGIm_0p_ctWRe_1p_ctWIm_0p'
p203
I49
sS'cHG_0p_cHGtil_0p_cHj1_0p_cHj3_0p_cHu_0p_cHd_0p_cHQ3_0p_cHtbRe_0p_cHtbIm_0p_cHW_0p_cHWtil_0p_cHB_0p_cHBtil_0p_cHWB_0p_cHWBtil_0p_cHbox_0p_cHDD_1p_cHl3_0p_cll1_0p_cG_0p_cGtil_0p_ctGRe_1p_ctGIm_0p_ctWRe_0p_ctWIm_0p'
p204
I311
sS'cHG_0p_cHGtil_0p_cHj1_0p_cHj3_0p_cHu_0p_cHd_0p_cHQ3_0p_cHtbRe_0p_cHtbIm_0p_cHW_0p_cHWtil_0p_cHB_0p_cHBtil_0p_cHWB_0p_cHWBtil_0p_cHbox_0p_cHDD_0p_cHl3_0p_cll1_0p_cG_0p_cGtil_0p_ctGRe_0p_ctGIm_1p_ctWRe_1p_ctWIm_0p'
p205
I346
sS'cHG_0p_cHGtil_0p_cHj1_0p_cHj3_0p_cHu_0p_cHd_0p_cHQ3_0p_cHtbRe_0p_cHtbIm_1p_cHW_0p_cHWtil_0p_cHB_0p_cHBtil_0p_cHWB_0p_cHWBtil_0p_cHbox_0p_cHDD_0p_cHl3_0p_cll1_0p_cG_0p_cGtil_0p_ctGRe_0p_ctGIm_1p_ctWRe_0p_ctWIm_0p'
p206
I212
sS'cHG_0p_cHGtil_0p_cHj1_0p_cHj3_0p_cHu_0p_cHd_0p_cHQ3_0p_cHtbRe_0p_cHtbIm_1p_cHW_0p_cHWtil_0p_cHB_0p_cHBtil_0p_cHWB_0p_cHWBtil_0p_cHbox_0p_cHDD_0p_cHl3_0p_cll1_0p_cG_0p_cGtil_0p_ctGRe_0p_ctGIm_0p_ctWRe_0p_ctWIm_1p'
p207
I214
sS'cHG_0p_cHGtil_1p_cHj1_0p_cHj3_0p_cHu_0p_cHd_0p_cHQ3_0p_cHtbRe_0p_cHtbIm_0p_cHW_0p_cHWtil_0p_cHB_0p_cHBtil_1p_cHWB_0p_cHWBtil_0p_cHbox_0p_cHDD_0p_cHl3_0p_cll1_0p_cG_0p_cGtil_0p_ctGRe_0p_ctGIm_0p_ctWRe_0p_ctWIm_0p'
p208
I62
sS'cHG_0p_cHGtil_0p_cHj1_0p_cHj3_0p_cHu_0p_cHd_0p_cHQ3_0p_cHtbRe_0p_cHtbIm_0p_cHW_0p_cHWtil_0p_cHB_0p_cHBtil_0p_cHWB_0p_cHWBtil_0p_cHbox_0p_cHDD_0p_cHl3_0p_cll1_0p_cG_0p_cGtil_0p_ctGRe_1p_ctGIm_1p_ctWRe_0p_ctWIm_0p'
p209
I342
sS'cHG_0p_cHGtil_0p_cHj1_0p_cHj3_0p_cHu_0p_cHd_1p_cHQ3_0p_cHtbRe_0p_cHtbIm_0p_cHW_0p_cHWtil_0p_cHB_0p_cHBtil_0p_cHWB_0p_cHWBtil_0p_cHbox_0p_cHDD_0p_cHl3_0p_cll1_0p_cG_0p_cGtil_0p_ctGRe_0p_ctGIm_0p_ctWRe_0p_ctWIm_1p'
p210
I160
sS'cHG_0p_cHGtil_0p_cHj1_0p_cHj3_0p_cHu_0p_cHd_0p_cHQ3_0p_cHtbRe_0p_cHtbIm_0p_cHW_1p_cHWtil_0p_cHB_0p_cHBtil_0p_cHWB_0p_cHWBtil_0p_cHbox_0p_cHDD_0p_cHl3_0p_cll1_0p_cG_0p_cGtil_0p_ctGRe_1p_ctGIm_0p_ctWRe_0p_ctWIm_0p'
p211
I227
sS'cHG_0p_cHGtil_0p_cHj1_0p_cHj3_0p_cHu_0p_cHd_0p_cHQ3_0p_cHtbRe_0p_cHtbIm_0p_cHW_1p_cHWtil_0p_cHB_0p_cHBtil_0p_cHWB_0p_cHWBtil_0p_cHbox_0p_cHDD_0p_cHl3_0p_cll1_0p_cG_0p_cGtil_0p_ctGRe_0p_ctGIm_0p_ctWRe_0p_ctWIm_0p'
p212
I10
sS'cHG_0p_cHGtil_0p_cHj1_0p_cHj3_0p_cHu_0p_cHd_0p_cHQ3_0p_cHtbRe_0p_cHtbIm_0p_cHW_0p_cHWtil_0p_cHB_1p_cHBtil_0p_cHWB_0p_cHWBtil_0p_cHbox_0p_cHDD_0p_cHl3_0p_cll1_0p_cG_1p_cGtil_0p_ctGRe_0p_ctGIm_0p_ctWRe_0p_ctWIm_0p'
p213
I254
sS'cHG_0p_cHGtil_0p_cHj1_0p_cHj3_0p_cHu_0p_cHd_0p_cHQ3_0p_cHtbRe_0p_cHtbIm_0p_cHW_0p_cHWtil_0p_cHB_1p_cHBtil_0p_cHWB_0p_cHWBtil_0p_cHbox_0p_cHDD_0p_cHl3_0p_cll1_0p_cG_0p_cGtil_0p_ctGRe_0p_ctGIm_0p_ctWRe_0p_ctWIm_1p'
p214
I259
sS'cHG_0p_cHGtil_0p_cHj1_0p_cHj3_0p_cHu_0p_cHd_0p_cHQ3_0p_cHtbRe_0p_cHtbIm_0p_cHW_0p_cHWtil_0p_cHB_0p_cHBtil_0p_cHWB_0p_cHWBtil_0p_cHbox_0p_cHDD_0p_cHl3_1p_cll1_0p_cG_0p_cGtil_0p_ctGRe_0p_ctGIm_0p_ctWRe_0p_ctWIm_0p'
p215
I18
sS'cHG_0p_cHGtil_1p_cHj1_0p_cHj3_0p_cHu_0p_cHd_0p_cHQ3_0p_cHtbRe_0p_cHtbIm_0p_cHW_0p_cHWtil_0p_cHB_0p_cHBtil_0p_cHWB_0p_cHWBtil_0p_cHbox_0p_cHDD_0p_cHl3_1p_cll1_0p_cG_0p_cGtil_0p_ctGRe_0p_ctGIm_0p_ctWRe_0p_ctWIm_0p'
p216
I67
sS'cHG_0p_cHGtil_0p_cHj1_0p_cHj3_0p_cHu_0p_cHd_0p_cHQ3_0p_cHtbRe_0p_cHtbIm_0p_cHW_0p_cHWtil_0p_cHB_0p_cHBtil_0p_cHWB_0p_cHWBtil_0p_cHbox_0p_cHDD_1p_cHl3_0p_cll1_0p_cG_0p_cGtil_0p_ctGRe_0p_ctGIm_0p_ctWRe_1p_ctWIm_0p'
p217
I313
sS'cHG_0p_cHGtil_0p_cHj1_0p_cHj3_1p_cHu_0p_cHd_0p_cHQ3_0p_cHtbRe_0p_cHtbIm_0p_cHW_0p_cHWtil_0p_cHB_1p_cHBtil_0p_cHWB_0p_cHWBtil_0p_cHbox_0p_cHDD_0p_cHl3_0p_cll1_0p_cG_0p_cGtil_0p_ctGRe_0p_ctGIm_0p_ctWRe_0p_ctWIm_0p'
p218
I106
sS'cHG_0p_cHGtil_0p_cHj1_0p_cHj3_0p_cHu_0p_cHd_0p_cHQ3_0p_cHtbRe_0p_cHtbIm_0p_cHW_0p_cHWtil_0p_cHB_1p_cHBtil_0p_cHWB_0p_cHWBtil_0p_cHbox_0p_cHDD_0p_cHl3_0p_cll1_0p_cG_0p_cGtil_1p_ctGRe_0p_ctGIm_0p_ctWRe_0p_ctWIm_0p'
p219
I255
sS'cHG_0p_cHGtil_0p_cHj1_2p_cHj3_0p_cHu_0p_cHd_0p_cHQ3_0p_cHtbRe_0p_cHtbIm_0p_cHW_0p_cHWtil_0p_cHB_0p_cHBtil_0p_cHWB_0p_cHWBtil_0p_cHbox_0p_cHDD_0p_cHl3_0p_cll1_0p_cG_0p_cGtil_0p_ctGRe_0p_ctGIm_0p_ctWRe_0p_ctWIm_0p'
p220
I75
sS'cHG_0p_cHGtil_0p_cHj1_0p_cHj3_0p_cHu_0p_cHd_0p_cHQ3_0p_cHtbRe_0p_cHtbIm_0p_cHW_1p_cHWtil_0p_cHB_0p_cHBtil_0p_cHWB_0p_cHWBtil_1p_cHbox_0p_cHDD_0p_cHl3_0p_cll1_0p_cG_0p_cGtil_0p_ctGRe_0p_ctGIm_0p_ctWRe_0p_ctWIm_0p'
p221
I220
sS'cHG_0p_cHGtil_0p_cHj1_0p_cHj3_0p_cHu_0p_cHd_0p_cHQ3_0p_cHtbRe_0p_cHtbIm_0p_cHW_0p_cHWtil_0p_cHB_0p_cHBtil_0p_cHWB_0p_cHWBtil_0p_cHbox_0p_cHDD_2p_cHl3_0p_cll1_0p_cG_0p_cGtil_0p_ctGRe_0p_ctGIm_0p_ctWRe_0p_ctWIm_0p'
p222
I306
sS'cHG_0p_cHGtil_0p_cHj1_0p_cHj3_0p_cHu_0p_cHd_0p_cHQ3_0p_cHtbRe_0p_cHtbIm_0p_cHW_0p_cHWtil_0p_cHB_0p_cHBtil_1p_cHWB_0p_cHWBtil_0p_cHbox_0p_cHDD_0p_cHl3_0p_cll1_0p_cG_0p_cGtil_0p_ctGRe_0p_ctGIm_0p_ctWRe_0p_ctWIm_0p'
p223
I13
sS'cHG_1p_cHGtil_0p_cHj1_0p_cHj3_0p_cHu_0p_cHd_0p_cHQ3_0p_cHtbRe_0p_cHtbIm_0p_cHW_0p_cHWtil_0p_cHB_1p_cHBtil_0p_cHWB_0p_cHWBtil_0p_cHbox_0p_cHDD_0p_cHl3_0p_cll1_0p_cG_0p_cGtil_0p_ctGRe_0p_ctGIm_0p_ctWRe_0p_ctWIm_0p'
p224
I37
sS'cHG_0p_cHGtil_0p_cHj1_0p_cHj3_0p_cHu_0p_cHd_0p_cHQ3_0p_cHtbRe_0p_cHtbIm_0p_cHW_0p_cHWtil_0p_cHB_0p_cHBtil_0p_cHWB_0p_cHWBtil_0p_cHbox_0p_cHDD_0p_cHl3_0p_cll1_0p_cG_0p_cGtil_0p_ctGRe_0p_ctGIm_0p_ctWRe_0p_ctWIm_2p'
p225
I350
sS'cHG_0p_cHGtil_0p_cHj1_0p_cHj3_0p_cHu_0p_cHd_0p_cHQ3_0p_cHtbRe_0p_cHtbIm_0p_cHW_1p_cHWtil_0p_cHB_0p_cHBtil_0p_cHWB_0p_cHWBtil_0p_cHbox_1p_cHDD_0p_cHl3_0p_cll1_0p_cG_0p_cGtil_0p_ctGRe_0p_ctGIm_0p_ctWRe_0p_ctWIm_0p'
p226
I221
sS'cHG_0p_cHGtil_0p_cHj1_0p_cHj3_0p_cHu_0p_cHd_0p_cHQ3_0p_cHtbRe_0p_cHtbIm_0p_cHW_0p_cHWtil_0p_cHB_0p_cHBtil_0p_cHWB_1p_cHWBtil_0p_cHbox_0p_cHDD_0p_cHl3_0p_cll1_1p_cG_0p_cGtil_0p_ctGRe_0p_ctGIm_0p_ctWRe_0p_ctWIm_0p'
p227
I278
sS'cHG_0p_cHGtil_0p_cHj1_1p_cHj3_0p_cHu_0p_cHd_0p_cHQ3_0p_cHtbRe_0p_cHtbIm_0p_cHW_0p_cHWtil_0p_cHB_0p_cHBtil_0p_cHWB_0p_cHWBtil_0p_cHbox_1p_cHDD_0p_cHl3_0p_cll1_0p_cG_0p_cGtil_0p_ctGRe_0p_ctGIm_0p_ctWRe_0p_ctWIm_0p'
p228
I88
sS'cHG_0p_cHGtil_1p_cHj1_0p_cHj3_0p_cHu_0p_cHd_0p_cHQ3_0p_cHtbRe_0p_cHtbIm_0p_cHW_0p_cHWtil_0p_cHB_0p_cHBtil_0p_cHWB_0p_cHWBtil_0p_cHbox_0p_cHDD_0p_cHl3_0p_cll1_0p_cG_1p_cGtil_0p_ctGRe_0p_ctGIm_0p_ctWRe_0p_ctWIm_0p'
p229
I69
sS'cHG_0p_cHGtil_0p_cHj1_0p_cHj3_0p_cHu_0p_cHd_0p_cHQ3_0p_cHtbRe_0p_cHtbIm_0p_cHW_1p_cHWtil_0p_cHB_0p_cHBtil_0p_cHWB_0p_cHWBtil_0p_cHbox_0p_cHDD_0p_cHl3_0p_cll1_0p_cG_0p_cGtil_0p_ctGRe_0p_ctGIm_0p_ctWRe_1p_ctWIm_0p'
p230
I229
sS'cHG_0p_cHGtil_0p_cHj1_0p_cHj3_1p_cHu_0p_cHd_1p_cHQ3_0p_cHtbRe_0p_cHtbIm_0p_cHW_0p_cHWtil_0p_cHB_0p_cHBtil_0p_cHWB_0p_cHWBtil_0p_cHbox_0p_cHDD_0p_cHl3_0p_cll1_0p_cG_0p_cGtil_0p_ctGRe_0p_ctGIm_0p_ctWRe_0p_ctWIm_0p'
p231
I100
sS'cHG_0p_cHGtil_0p_cHj1_1p_cHj3_0p_cHu_0p_cHd_0p_cHQ3_0p_cHtbRe_0p_cHtbIm_0p_cHW_0p_cHWtil_0p_cHB_0p_cHBtil_0p_cHWB_1p_cHWBtil_0p_cHbox_0p_cHDD_0p_cHl3_0p_cll1_0p_cG_0p_cGtil_0p_ctGRe_0p_ctGIm_0p_ctWRe_0p_ctWIm_0p'
p232
I86
sS'cHG_0p_cHGtil_0p_cHj1_0p_cHj3_0p_cHu_0p_cHd_0p_cHQ3_0p_cHtbRe_0p_cHtbIm_0p_cHW_0p_cHWtil_0p_cHB_0p_cHBtil_1p_cHWB_0p_cHWBtil_0p_cHbox_0p_cHDD_0p_cHl3_0p_cll1_0p_cG_0p_cGtil_0p_ctGRe_0p_ctGIm_0p_ctWRe_1p_ctWIm_0p'
p233
I271
sS'cHG_0p_cHGtil_0p_cHj1_0p_cHj3_0p_cHu_0p_cHd_0p_cHQ3_0p_cHtbRe_1p_cHtbIm_0p_cHW_0p_cHWtil_0p_cHB_1p_cHBtil_0p_cHWB_0p_cHWBtil_0p_cHbox_0p_cHDD_0p_cHl3_0p_cll1_0p_cG_0p_cGtil_0p_ctGRe_0p_ctGIm_0p_ctWRe_0p_ctWIm_0p'
p234
I184
sS'cHG_0p_cHGtil_0p_cHj1_0p_cHj3_0p_cHu_0p_cHd_0p_cHQ3_0p_cHtbRe_0p_cHtbIm_0p_cHW_0p_cHWtil_0p_cHB_0p_cHBtil_0p_cHWB_0p_cHWBtil_0p_cHbox_1p_cHDD_0p_cHl3_0p_cll1_0p_cG_0p_cGtil_0p_ctGRe_0p_ctGIm_0p_ctWRe_1p_ctWIm_0p'
p235
I304
sS'cHG_0p_cHGtil_0p_cHj1_0p_cHj3_1p_cHu_0p_cHd_0p_cHQ3_0p_cHtbRe_0p_cHtbIm_1p_cHW_0p_cHWtil_0p_cHB_0p_cHBtil_0p_cHWB_0p_cHWBtil_0p_cHbox_0p_cHDD_0p_cHl3_0p_cll1_0p_cG_0p_cGtil_0p_ctGRe_0p_ctGIm_0p_ctWRe_0p_ctWIm_0p'
p236
I103
sS'cHG_0p_cHGtil_0p_cHj1_0p_cHj3_0p_cHu_0p_cHd_0p_cHQ3_0p_cHtbRe_0p_cHtbIm_0p_cHW_1p_cHWtil_0p_cHB_0p_cHBtil_1p_cHWB_0p_cHWBtil_0p_cHbox_0p_cHDD_0p_cHl3_0p_cll1_0p_cG_0p_cGtil_0p_ctGRe_0p_ctGIm_0p_ctWRe_0p_ctWIm_0p'
p237
I218
sS'cHG_0p_cHGtil_0p_cHj1_0p_cHj3_0p_cHu_0p_cHd_1p_cHQ3_0p_cHtbRe_0p_cHtbIm_0p_cHW_0p_cHWtil_0p_cHB_0p_cHBtil_0p_cHWB_0p_cHWBtil_0p_cHbox_0p_cHDD_0p_cHl3_0p_cll1_0p_cG_1p_cGtil_0p_ctGRe_0p_ctGIm_0p_ctWRe_0p_ctWIm_0p'
p238
I155
sS'cHG_0p_cHGtil_0p_cHj1_0p_cHj3_0p_cHu_0p_cHd_0p_cHQ3_0p_cHtbRe_0p_cHtbIm_1p_cHW_0p_cHWtil_0p_cHB_0p_cHBtil_0p_cHWB_0p_cHWBtil_0p_cHbox_0p_cHDD_0p_cHl3_0p_cll1_0p_cG_0p_cGtil_0p_ctGRe_1p_ctGIm_0p_ctWRe_0p_ctWIm_0p'
p239
I211
sS'cHG_0p_cHGtil_0p_cHj1_0p_cHj3_0p_cHu_0p_cHd_0p_cHQ3_0p_cHtbRe_0p_cHtbIm_0p_cHW_0p_cHWtil_0p_cHB_0p_cHBtil_1p_cHWB_0p_cHWBtil_0p_cHbox_0p_cHDD_0p_cHl3_0p_cll1_0p_cG_1p_cGtil_0p_ctGRe_0p_ctGIm_0p_ctWRe_0p_ctWIm_0p'
p240
I267
sS'cHG_1p_cHGtil_1p_cHj1_0p_cHj3_0p_cHu_0p_cHd_0p_cHQ3_0p_cHtbRe_0p_cHtbIm_0p_cHW_0p_cHWtil_0p_cHB_0p_cHBtil_0p_cHWB_0p_cHWBtil_0p_cHbox_0p_cHDD_0p_cHl3_0p_cll1_0p_cG_0p_cGtil_0p_ctGRe_0p_ctGIm_0p_ctWRe_0p_ctWIm_0p'
p241
I27
sS'cHG_0p_cHGtil_0p_cHj1_0p_cHj3_0p_cHu_0p_cHd_0p_cHQ3_0p_cHtbRe_1p_cHtbIm_0p_cHW_0p_cHWtil_0p_cHB_0p_cHBtil_0p_cHWB_0p_cHWBtil_0p_cHbox_0p_cHDD_0p_cHl3_1p_cll1_0p_cG_0p_cGtil_0p_ctGRe_0p_ctGIm_0p_ctWRe_0p_ctWIm_0p'
p242
I190
sS'cHG_0p_cHGtil_0p_cHj1_0p_cHj3_0p_cHu_0p_cHd_1p_cHQ3_0p_cHtbRe_0p_cHtbIm_0p_cHW_0p_cHWtil_0p_cHB_0p_cHBtil_0p_cHWB_0p_cHWBtil_0p_cHbox_0p_cHDD_0p_cHl3_0p_cll1_0p_cG_0p_cGtil_0p_ctGRe_0p_ctGIm_1p_ctWRe_0p_ctWIm_0p'
p243
I158
sS'cHG_0p_cHGtil_1p_cHj1_0p_cHj3_0p_cHu_0p_cHd_0p_cHQ3_1p_cHtbRe_0p_cHtbIm_0p_cHW_0p_cHWtil_0p_cHB_0p_cHBtil_0p_cHWB_0p_cHWBtil_0p_cHbox_0p_cHDD_0p_cHl3_0p_cll1_0p_cG_0p_cGtil_0p_ctGRe_0p_ctGIm_0p_ctWRe_0p_ctWIm_0p'
p244
I56
sS'cHG_1p_cHGtil_0p_cHj1_0p_cHj3_0p_cHu_0p_cHd_0p_cHQ3_0p_cHtbRe_0p_cHtbIm_0p_cHW_1p_cHWtil_0p_cHB_0p_cHBtil_0p_cHWB_0p_cHWBtil_0p_cHbox_0p_cHDD_0p_cHl3_0p_cll1_0p_cG_0p_cGtil_0p_ctGRe_0p_ctGIm_0p_ctWRe_0p_ctWIm_0p'
p245
I35
sS'cHG_0p_cHGtil_1p_cHj1_0p_cHj3_0p_cHu_0p_cHd_0p_cHQ3_0p_cHtbRe_0p_cHtbIm_0p_cHW_0p_cHWtil_0p_cHB_0p_cHBtil_0p_cHWB_0p_cHWBtil_0p_cHbox_1p_cHDD_0p_cHl3_0p_cll1_0p_cG_0p_cGtil_0p_ctGRe_0p_ctGIm_0p_ctWRe_0p_ctWIm_0p'
p246
I65
sS'cHG_0p_cHGtil_0p_cHj1_0p_cHj3_0p_cHu_0p_cHd_0p_cHQ3_0p_cHtbRe_0p_cHtbIm_0p_cHW_1p_cHWtil_0p_cHB_0p_cHBtil_0p_cHWB_0p_cHWBtil_0p_cHbox_0p_cHDD_0p_cHl3_1p_cll1_0p_cG_0p_cGtil_0p_ctGRe_0p_ctGIm_0p_ctWRe_0p_ctWIm_0p'
p247
I223
sS'cHG_0p_cHGtil_0p_cHj1_1p_cHj3_0p_cHu_0p_cHd_0p_cHQ3_0p_cHtbRe_0p_cHtbIm_0p_cHW_0p_cHWtil_0p_cHB_0p_cHBtil_0p_cHWB_0p_cHWBtil_0p_cHbox_0p_cHDD_1p_cHl3_0p_cll1_0p_cG_0p_cGtil_0p_ctGRe_0p_ctGIm_0p_ctWRe_0p_ctWIm_0p'
p248
I89
sS'cHG_0p_cHGtil_0p_cHj1_1p_cHj3_0p_cHu_0p_cHd_0p_cHQ3_0p_cHtbRe_0p_cHtbIm_0p_cHW_0p_cHWtil_0p_cHB_0p_cHBtil_0p_cHWB_0p_cHWBtil_0p_cHbox_0p_cHDD_0p_cHl3_0p_cll1_0p_cG_0p_cGtil_1p_ctGRe_0p_ctGIm_0p_ctWRe_0p_ctWIm_0p'
p249
I93
sS'cHG_1p_cHGtil_0p_cHj1_0p_cHj3_0p_cHu_0p_cHd_0p_cHQ3_0p_cHtbRe_0p_cHtbIm_0p_cHW_0p_cHWtil_0p_cHB_0p_cHBtil_0p_cHWB_0p_cHWBtil_0p_cHbox_0p_cHDD_0p_cHl3_0p_cll1_1p_cG_0p_cGtil_0p_ctGRe_0p_ctGIm_0p_ctWRe_0p_ctWIm_0p'
p250
I44
sS'cHG_0p_cHGtil_0p_cHj1_0p_cHj3_0p_cHu_0p_cHd_0p_cHQ3_0p_cHtbRe_1p_cHtbIm_0p_cHW_0p_cHWtil_0p_cHB_0p_cHBtil_0p_cHWB_0p_cHWBtil_0p_cHbox_0p_cHDD_0p_cHl3_0p_cll1_0p_cG_0p_cGtil_0p_ctGRe_0p_ctGIm_1p_ctWRe_0p_ctWIm_0p'
p251
I195
sS'cHG_0p_cHGtil_0p_cHj1_0p_cHj3_0p_cHu_0p_cHd_0p_cHQ3_1p_cHtbRe_0p_cHtbIm_1p_cHW_0p_cHWtil_0p_cHB_0p_cHBtil_0p_cHWB_0p_cHWBtil_0p_cHbox_0p_cHDD_0p_cHl3_0p_cll1_0p_cG_0p_cGtil_0p_ctGRe_0p_ctGIm_0p_ctWRe_0p_ctWIm_0p'
p252
I163
sS'cHG_1p_cHGtil_0p_cHj1_0p_cHj3_0p_cHu_0p_cHd_1p_cHQ3_0p_cHtbRe_0p_cHtbIm_0p_cHW_0p_cHWtil_0p_cHB_0p_cHBtil_0p_cHWB_0p_cHWBtil_0p_cHbox_0p_cHDD_0p_cHl3_0p_cll1_0p_cG_0p_cGtil_0p_ctGRe_0p_ctGIm_0p_ctWRe_0p_ctWIm_0p'
p253
I31
sS'cHG_0p_cHGtil_0p_cHj1_0p_cHj3_0p_cHu_1p_cHd_0p_cHQ3_0p_cHtbRe_0p_cHtbIm_0p_cHW_0p_cHWtil_0p_cHB_0p_cHBtil_0p_cHWB_0p_cHWBtil_0p_cHbox_0p_cHDD_0p_cHl3_0p_cll1_1p_cG_0p_cGtil_0p_ctGRe_0p_ctGIm_0p_ctWRe_0p_ctWIm_0p'
p254
I134
sS'cHG_0p_cHGtil_0p_cHj1_0p_cHj3_0p_cHu_0p_cHd_0p_cHQ3_0p_cHtbRe_0p_cHtbIm_0p_cHW_0p_cHWtil_0p_cHB_0p_cHBtil_0p_cHWB_1p_cHWBtil_0p_cHbox_0p_cHDD_1p_cHl3_0p_cll1_0p_cG_0p_cGtil_0p_ctGRe_0p_ctGIm_0p_ctWRe_0p_ctWIm_0p'
p255
I276
sS'cHG_0p_cHGtil_0p_cHj1_0p_cHj3_0p_cHu_0p_cHd_0p_cHQ3_0p_cHtbRe_0p_cHtbIm_1p_cHW_1p_cHWtil_0p_cHB_0p_cHBtil_0p_cHWB_0p_cHWBtil_0p_cHbox_0p_cHDD_0p_cHl3_0p_cll1_0p_cG_0p_cGtil_0p_ctGRe_0p_ctGIm_0p_ctWRe_0p_ctWIm_0p'
p256
I199
sS'cHG_0p_cHGtil_0p_cHj1_1p_cHj3_1p_cHu_0p_cHd_0p_cHQ3_0p_cHtbRe_0p_cHtbIm_0p_cHW_0p_cHWtil_0p_cHB_0p_cHBtil_0p_cHWB_0p_cHWBtil_0p_cHbox_0p_cHDD_0p_cHl3_0p_cll1_0p_cG_0p_cGtil_0p_ctGRe_0p_ctGIm_0p_ctWRe_0p_ctWIm_0p'
p257
I76
sS'cHG_0p_cHGtil_0p_cHj1_0p_cHj3_0p_cHu_0p_cHd_0p_cHQ3_0p_cHtbRe_0p_cHtbIm_0p_cHW_0p_cHWtil_0p_cHB_0p_cHBtil_0p_cHWB_0p_cHWBtil_0p_cHbox_0p_cHDD_0p_cHl3_1p_cll1_1p_cG_0p_cGtil_0p_ctGRe_0p_ctGIm_0p_ctWRe_0p_ctWIm_0p'
p258
I316
sS'cHG_0p_cHGtil_1p_cHj1_0p_cHj3_0p_cHu_0p_cHd_0p_cHQ3_0p_cHtbRe_0p_cHtbIm_0p_cHW_0p_cHWtil_0p_cHB_0p_cHBtil_0p_cHWB_0p_cHWBtil_0p_cHbox_0p_cHDD_0p_cHl3_0p_cll1_0p_cG_0p_cGtil_0p_ctGRe_0p_ctGIm_0p_ctWRe_1p_ctWIm_0p'
p259
I73
sS'cHG_0p_cHGtil_0p_cHj1_0p_cHj3_0p_cHu_0p_cHd_1p_cHQ3_0p_cHtbRe_0p_cHtbIm_0p_cHW_0p_cHWtil_0p_cHB_0p_cHBtil_0p_cHWB_0p_cHWBtil_0p_cHbox_0p_cHDD_0p_cHl3_0p_cll1_0p_cG_0p_cGtil_1p_ctGRe_0p_ctGIm_0p_ctWRe_0p_ctWIm_0p'
p260
I156
sS'cHG_0p_cHGtil_0p_cHj1_0p_cHj3_0p_cHu_0p_cHd_0p_cHQ3_0p_cHtbRe_0p_cHtbIm_0p_cHW_0p_cHWtil_0p_cHB_1p_cHBtil_1p_cHWB_0p_cHWBtil_0p_cHbox_0p_cHDD_0p_cHl3_0p_cll1_0p_cG_0p_cGtil_0p_ctGRe_0p_ctGIm_0p_ctWRe_0p_ctWIm_0p'
p261
I247
sS'cHG_0p_cHGtil_0p_cHj1_0p_cHj3_0p_cHu_0p_cHd_0p_cHQ3_0p_cHtbRe_0p_cHtbIm_0p_cHW_0p_cHWtil_0p_cHB_0p_cHBtil_0p_cHWB_0p_cHWBtil_0p_cHbox_0p_cHDD_0p_cHl3_0p_cll1_0p_cG_0p_cGtil_0p_ctGRe_0p_ctGIm_1p_ctWRe_0p_ctWIm_1p'
p262
I347
sS'cHG_0p_cHGtil_0p_cHj1_0p_cHj3_0p_cHu_0p_cHd_0p_cHQ3_0p_cHtbRe_0p_cHtbIm_0p_cHW_0p_cHWtil_0p_cHB_0p_cHBtil_0p_cHWB_0p_cHWBtil_0p_cHbox_0p_cHDD_0p_cHl3_0p_cll1_0p_cG_1p_cGtil_0p_ctGRe_0p_ctGIm_0p_ctWRe_0p_ctWIm_1p'
p263
I335
sS'cHG_0p_cHGtil_0p_cHj1_0p_cHj3_0p_cHu_0p_cHd_0p_cHQ3_0p_cHtbRe_0p_cHtbIm_0p_cHW_0p_cHWtil_0p_cHB_0p_cHBtil_0p_cHWB_1p_cHWBtil_0p_cHbox_0p_cHDD_0p_cHl3_0p_cll1_0p_cG_0p_cGtil_0p_ctGRe_1p_ctGIm_0p_ctWRe_0p_ctWIm_0p'
p264
I281
sS'cHG_1p_cHGtil_0p_cHj1_0p_cHj3_0p_cHu_0p_cHd_0p_cHQ3_0p_cHtbRe_0p_cHtbIm_0p_cHW_0p_cHWtil_0p_cHB_0p_cHBtil_0p_cHWB_0p_cHWBtil_0p_cHbox_0p_cHDD_0p_cHl3_0p_cll1_0p_cG_0p_cGtil_1p_ctGRe_0p_ctGIm_0p_ctWRe_0p_ctWIm_0p'
p265
I46
sS'cHG_1p_cHGtil_0p_cHj1_0p_cHj3_0p_cHu_1p_cHd_0p_cHQ3_0p_cHtbRe_0p_cHtbIm_0p_cHW_0p_cHWtil_0p_cHB_0p_cHBtil_0p_cHWB_0p_cHWBtil_0p_cHbox_0p_cHDD_0p_cHl3_0p_cll1_0p_cG_0p_cGtil_0p_ctGRe_0p_ctGIm_0p_ctWRe_0p_ctWIm_0p'
p266
I30
sS'cHG_0p_cHGtil_0p_cHj1_0p_cHj3_0p_cHu_0p_cHd_0p_cHQ3_0p_cHtbRe_1p_cHtbIm_0p_cHW_0p_cHWtil_0p_cHB_0p_cHBtil_0p_cHWB_0p_cHWBtil_1p_cHbox_0p_cHDD_0p_cHl3_0p_cll1_0p_cG_0p_cGtil_0p_ctGRe_0p_ctGIm_0p_ctWRe_0p_ctWIm_0p'
p267
I187
sS'cHG_1p_cHGtil_0p_cHj1_0p_cHj3_0p_cHu_0p_cHd_0p_cHQ3_0p_cHtbRe_0p_cHtbIm_0p_cHW_0p_cHWtil_0p_cHB_0p_cHBtil_0p_cHWB_0p_cHWBtil_0p_cHbox_0p_cHDD_0p_cHl3_1p_cll1_0p_cG_0p_cGtil_0p_ctGRe_0p_ctGIm_0p_ctWRe_0p_ctWIm_0p'
p268
I43
sS'cHG_0p_cHGtil_1p_cHj1_0p_cHj3_0p_cHu_0p_cHd_0p_cHQ3_0p_cHtbRe_0p_cHtbIm_1p_cHW_0p_cHWtil_0p_cHB_0p_cHBtil_0p_cHWB_0p_cHWBtil_0p_cHbox_0p_cHDD_0p_cHl3_0p_cll1_0p_cG_0p_cGtil_0p_ctGRe_0p_ctGIm_0p_ctWRe_0p_ctWIm_0p'
p269
I58
sS'cHG_0p_cHGtil_0p_cHj1_0p_cHj3_0p_cHu_0p_cHd_0p_cHQ3_0p_cHtbRe_0p_cHtbIm_0p_cHW_0p_cHWtil_0p_cHB_2p_cHBtil_0p_cHWB_0p_cHWBtil_0p_cHbox_0p_cHDD_0p_cHl3_0p_cll1_0p_cG_0p_cGtil_0p_ctGRe_0p_ctGIm_0p_ctWRe_0p_ctWIm_0p'
p270
I246
sS'cHG_0p_cHGtil_0p_cHj1_1p_cHj3_0p_cHu_0p_cHd_0p_cHQ3_0p_cHtbRe_0p_cHtbIm_0p_cHW_0p_cHWtil_0p_cHB_0p_cHBtil_0p_cHWB_0p_cHWBtil_1p_cHbox_0p_cHDD_0p_cHl3_0p_cll1_0p_cG_0p_cGtil_0p_ctGRe_0p_ctGIm_0p_ctWRe_0p_ctWIm_0p'
p271
I87
sS'cHG_0p_cHGtil_0p_cHj1_0p_cHj3_1p_cHu_0p_cHd_0p_cHQ3_0p_cHtbRe_0p_cHtbIm_0p_cHW_0p_cHWtil_0p_cHB_0p_cHBtil_0p_cHWB_0p_cHWBtil_0p_cHbox_1p_cHDD_0p_cHl3_0p_cll1_0p_cG_0p_cGtil_0p_ctGRe_0p_ctGIm_0p_ctWRe_0p_ctWIm_0p'
p272
I110
sS'cHG_0p_cHGtil_0p_cHj1_0p_cHj3_0p_cHu_0p_cHd_0p_cHQ3_0p_cHtbRe_0p_cHtbIm_0p_cHW_0p_cHWtil_1p_cHB_0p_cHBtil_0p_cHWB_0p_cHWBtil_0p_cHbox_0p_cHDD_0p_cHl3_0p_cll1_0p_cG_1p_cGtil_0p_ctGRe_0p_ctGIm_0p_ctWRe_0p_ctWIm_0p'
p273
I240
sS'cHG_0p_cHGtil_0p_cHj1_0p_cHj3_0p_cHu_0p_cHd_0p_cHQ3_0p_cHtbRe_0p_cHtbIm_0p_cHW_0p_cHWtil_0p_cHB_0p_cHBtil_0p_cHWB_0p_cHWBtil_0p_cHbox_0p_cHDD_0p_cHl3_0p_cll1_0p_cG_1p_cGtil_0p_ctGRe_0p_ctGIm_0p_ctWRe_1p_ctWIm_0p'
p274
I334
sS'cHG_0p_cHGtil_0p_cHj1_1p_cHj3_0p_cHu_0p_cHd_0p_cHQ3_0p_cHtbRe_1p_cHtbIm_0p_cHW_0p_cHWtil_0p_cHB_0p_cHBtil_0p_cHWB_0p_cHWBtil_0p_cHbox_0p_cHDD_0p_cHl3_0p_cll1_0p_cG_0p_cGtil_0p_ctGRe_0p_ctGIm_0p_ctWRe_0p_ctWIm_0p'
p275
I80
sS'cHG_0p_cHGtil_0p_cHj1_0p_cHj3_0p_cHu_0p_cHd_0p_cHQ3_0p_cHtbRe_0p_cHtbIm_0p_cHW_0p_cHWtil_0p_cHB_0p_cHBtil_0p_cHWB_0p_cHWBtil_0p_cHbox_0p_cHDD_1p_cHl3_0p_cll1_0p_cG_0p_cGtil_0p_ctGRe_0p_ctGIm_0p_ctWRe_0p_ctWIm_1p'
p276
I314
sS'cHG_0p_cHGtil_0p_cHj1_0p_cHj3_0p_cHu_0p_cHd_0p_cHQ3_0p_cHtbRe_0p_cHtbIm_0p_cHW_0p_cHWtil_0p_cHB_0p_cHBtil_0p_cHWB_1p_cHWBtil_0p_cHbox_0p_cHDD_0p_cHl3_0p_cll1_0p_cG_0p_cGtil_0p_ctGRe_0p_ctGIm_0p_ctWRe_0p_ctWIm_1p'
p277
I284
sS'cHG_1p_cHGtil_0p_cHj1_0p_cHj3_0p_cHu_0p_cHd_0p_cHQ3_0p_cHtbRe_0p_cHtbIm_1p_cHW_0p_cHWtil_0p_cHB_0p_cHBtil_0p_cHWB_0p_cHWBtil_0p_cHbox_0p_cHDD_0p_cHl3_0p_cll1_0p_cG_0p_cGtil_0p_ctGRe_0p_ctGIm_0p_ctWRe_0p_ctWIm_0p'
p278
I34
sS'cHG_0p_cHGtil_0p_cHj1_0p_cHj3_0p_cHu_0p_cHd_0p_cHQ3_0p_cHtbRe_0p_cHtbIm_0p_cHW_1p_cHWtil_0p_cHB_0p_cHBtil_0p_cHWB_0p_cHWBtil_0p_cHbox_0p_cHDD_1p_cHl3_0p_cll1_0p_cG_0p_cGtil_0p_ctGRe_0p_ctGIm_0p_ctWRe_0p_ctWIm_0p'
p279
I222
sS'cHG_0p_cHGtil_0p_cHj1_0p_cHj3_0p_cHu_0p_cHd_0p_cHQ3_0p_cHtbRe_0p_cHtbIm_0p_cHW_1p_cHWtil_0p_cHB_0p_cHBtil_0p_cHWB_0p_cHWBtil_0p_cHbox_0p_cHDD_0p_cHl3_0p_cll1_0p_cG_0p_cGtil_0p_ctGRe_0p_ctGIm_1p_ctWRe_0p_ctWIm_0p'
p280
I228
sS'cHG_0p_cHGtil_0p_cHj1_0p_cHj3_0p_cHu_0p_cHd_0p_cHQ3_0p_cHtbRe_0p_cHtbIm_0p_cHW_0p_cHWtil_0p_cHB_0p_cHBtil_0p_cHWB_0p_cHWBtil_0p_cHbox_0p_cHDD_0p_cHl3_0p_cll1_1p_cG_0p_cGtil_0p_ctGRe_0p_ctGIm_0p_ctWRe_0p_ctWIm_1p'
p281
I329
sS'cHG_1p_cHGtil_0p_cHj1_0p_cHj3_0p_cHu_0p_cHd_0p_cHQ3_0p_cHtbRe_0p_cHtbIm_0p_cHW_0p_cHWtil_0p_cHB_0p_cHBtil_0p_cHWB_0p_cHWBtil_0p_cHbox_0p_cHDD_0p_cHl3_0p_cll1_0p_cG_0p_cGtil_0p_ctGRe_0p_ctGIm_0p_ctWRe_0p_ctWIm_0p'
p282
I1
sS'cHG_0p_cHGtil_0p_cHj1_0p_cHj3_0p_cHu_0p_cHd_0p_cHQ3_0p_cHtbRe_0p_cHtbIm_0p_cHW_0p_cHWtil_0p_cHB_0p_cHBtil_1p_cHWB_0p_cHWBtil_0p_cHbox_0p_cHDD_0p_cHl3_0p_cll1_0p_cG_0p_cGtil_0p_ctGRe_1p_ctGIm_0p_ctWRe_0p_ctWIm_0p'
p283
I269
sS'cHG_0p_cHGtil_0p_cHj1_0p_cHj3_0p_cHu_0p_cHd_0p_cHQ3_0p_cHtbRe_0p_cHtbIm_0p_cHW_0p_cHWtil_0p_cHB_0p_cHBtil_0p_cHWB_0p_cHWBtil_0p_cHbox_1p_cHDD_0p_cHl3_0p_cll1_0p_cG_0p_cGtil_0p_ctGRe_0p_ctGIm_1p_ctWRe_0p_ctWIm_0p'
p284
I303
sS'cHG_0p_cHGtil_0p_cHj1_0p_cHj3_1p_cHu_0p_cHd_0p_cHQ3_0p_cHtbRe_0p_cHtbIm_0p_cHW_0p_cHWtil_0p_cHB_0p_cHBtil_0p_cHWB_0p_cHWBtil_0p_cHbox_0p_cHDD_0p_cHl3_0p_cll1_0p_cG_0p_cGtil_0p_ctGRe_0p_ctGIm_0p_ctWRe_0p_ctWIm_0p'
p285
I4
sS'cHG_0p_cHGtil_0p_cHj1_0p_cHj3_0p_cHu_0p_cHd_0p_cHQ3_0p_cHtbRe_0p_cHtbIm_0p_cHW_0p_cHWtil_0p_cHB_0p_cHBtil_0p_cHWB_0p_cHWBtil_0p_cHbox_0p_cHDD_0p_cHl3_1p_cll1_0p_cG_1p_cGtil_0p_ctGRe_0p_ctGIm_0p_ctWRe_0p_ctWIm_0p'
p286
I317
sS'cHG_0p_cHGtil_0p_cHj1_0p_cHj3_0p_cHu_0p_cHd_0p_cHQ3_0p_cHtbRe_0p_cHtbIm_0p_cHW_0p_cHWtil_0p_cHB_1p_cHBtil_0p_cHWB_0p_cHWBtil_0p_cHbox_0p_cHDD_0p_cHl3_0p_cll1_0p_cG_0p_cGtil_0p_ctGRe_0p_ctGIm_0p_ctWRe_1p_ctWIm_0p'
p287
I258
sS'cHG_0p_cHGtil_0p_cHj1_0p_cHj3_0p_cHu_0p_cHd_0p_cHQ3_0p_cHtbRe_0p_cHtbIm_0p_cHW_0p_cHWtil_1p_cHB_0p_cHBtil_0p_cHWB_0p_cHWBtil_0p_cHbox_0p_cHDD_0p_cHl3_1p_cll1_0p_cG_0p_cGtil_0p_ctGRe_0p_ctGIm_0p_ctWRe_0p_ctWIm_0p'
p288
I238
sS'cHG_0p_cHGtil_0p_cHj1_0p_cHj3_0p_cHu_0p_cHd_0p_cHQ3_0p_cHtbRe_0p_cHtbIm_0p_cHW_0p_cHWtil_0p_cHB_0p_cHBtil_0p_cHWB_0p_cHWBtil_0p_cHbox_0p_cHDD_0p_cHl3_0p_cll1_2p_cG_0p_cGtil_0p_ctGRe_0p_ctGIm_0p_ctWRe_0p_ctWIm_0p'
p289
I323
sS'cHG_0p_cHGtil_0p_cHj1_0p_cHj3_1p_cHu_0p_cHd_0p_cHQ3_0p_cHtbRe_0p_cHtbIm_0p_cHW_0p_cHWtil_0p_cHB_0p_cHBtil_0p_cHWB_0p_cHWBtil_0p_cHbox_0p_cHDD_0p_cHl3_0p_cll1_0p_cG_0p_cGtil_0p_ctGRe_0p_ctGIm_0p_ctWRe_1p_ctWIm_0p'
p290
I118
sS'cHG_0p_cHGtil_0p_cHj1_0p_cHj3_1p_cHu_0p_cHd_0p_cHQ3_0p_cHtbRe_0p_cHtbIm_0p_cHW_0p_cHWtil_1p_cHB_0p_cHBtil_0p_cHWB_0p_cHWBtil_0p_cHbox_0p_cHDD_0p_cHl3_0p_cll1_0p_cG_0p_cGtil_0p_ctGRe_0p_ctGIm_0p_ctWRe_0p_ctWIm_0p'
p291
I105
sS'cHG_0p_cHGtil_0p_cHj1_0p_cHj3_1p_cHu_0p_cHd_0p_cHQ3_0p_cHtbRe_0p_cHtbIm_0p_cHW_0p_cHWtil_0p_cHB_0p_cHBtil_0p_cHWB_0p_cHWBtil_0p_cHbox_0p_cHDD_1p_cHl3_0p_cll1_0p_cG_0p_cGtil_0p_ctGRe_0p_ctGIm_0p_ctWRe_0p_ctWIm_0p'
p292
I111
sS'cHG_0p_cHGtil_0p_cHj1_0p_cHj3_0p_cHu_0p_cHd_0p_cHQ3_0p_cHtbRe_0p_cHtbIm_0p_cHW_0p_cHWtil_0p_cHB_0p_cHBtil_0p_cHWB_0p_cHWBtil_1p_cHbox_0p_cHDD_1p_cHl3_0p_cll1_0p_cG_0p_cGtil_0p_ctGRe_0p_ctGIm_0p_ctWRe_0p_ctWIm_0p'
p293
I287
sS'cHG_0p_cHGtil_0p_cHj1_0p_cHj3_0p_cHu_0p_cHd_0p_cHQ3_0p_cHtbRe_1p_cHtbIm_0p_cHW_0p_cHWtil_0p_cHB_0p_cHBtil_0p_cHWB_0p_cHWBtil_0p_cHbox_0p_cHDD_0p_cHl3_0p_cll1_0p_cG_0p_cGtil_0p_ctGRe_1p_ctGIm_0p_ctWRe_0p_ctWIm_0p'
p294
I194
sS'cHG_0p_cHGtil_0p_cHj1_1p_cHj3_0p_cHu_0p_cHd_0p_cHQ3_1p_cHtbRe_0p_cHtbIm_0p_cHW_0p_cHWtil_0p_cHB_0p_cHBtil_0p_cHWB_0p_cHWBtil_0p_cHbox_0p_cHDD_0p_cHl3_0p_cll1_0p_cG_0p_cGtil_0p_ctGRe_0p_ctGIm_0p_ctWRe_0p_ctWIm_0p'
p295
I79
sS'cHG_0p_cHGtil_0p_cHj1_0p_cHj3_0p_cHu_1p_cHd_0p_cHQ3_0p_cHtbRe_0p_cHtbIm_0p_cHW_0p_cHWtil_0p_cHB_0p_cHBtil_0p_cHWB_0p_cHWBtil_0p_cHbox_0p_cHDD_0p_cHl3_0p_cll1_0p_cG_0p_cGtil_0p_ctGRe_1p_ctGIm_0p_ctWRe_0p_ctWIm_0p'
p296
I137
sS'cHG_0p_cHGtil_0p_cHj1_0p_cHj3_0p_cHu_1p_cHd_0p_cHQ3_0p_cHtbRe_0p_cHtbIm_0p_cHW_0p_cHWtil_0p_cHB_0p_cHBtil_0p_cHWB_0p_cHWBtil_0p_cHbox_0p_cHDD_0p_cHl3_0p_cll1_0p_cG_0p_cGtil_0p_ctGRe_0p_ctGIm_0p_ctWRe_0p_ctWIm_0p'
p297
I5
sS'cHG_0p_cHGtil_0p_cHj1_0p_cHj3_0p_cHu_1p_cHd_0p_cHQ3_1p_cHtbRe_0p_cHtbIm_0p_cHW_0p_cHWtil_0p_cHB_0p_cHBtil_0p_cHWB_0p_cHWBtil_0p_cHbox_0p_cHDD_0p_cHl3_0p_cll1_0p_cG_0p_cGtil_0p_ctGRe_0p_ctGIm_0p_ctWRe_0p_ctWIm_0p'
p298
I122
sS'cHG_0p_cHGtil_0p_cHj1_0p_cHj3_0p_cHu_0p_cHd_1p_cHQ3_0p_cHtbRe_1p_cHtbIm_0p_cHW_0p_cHWtil_0p_cHB_0p_cHBtil_0p_cHWB_0p_cHWBtil_0p_cHbox_0p_cHDD_0p_cHl3_0p_cll1_0p_cG_0p_cGtil_0p_ctGRe_0p_ctGIm_0p_ctWRe_0p_ctWIm_0p'
p299
I143
sS'cHG_2p_cHGtil_0p_cHj1_0p_cHj3_0p_cHu_0p_cHd_0p_cHQ3_0p_cHtbRe_0p_cHtbIm_0p_cHW_0p_cHWtil_0p_cHB_0p_cHBtil_0p_cHWB_0p_cHWBtil_0p_cHbox_0p_cHDD_0p_cHl3_0p_cll1_0p_cG_0p_cGtil_0p_ctGRe_0p_ctGIm_0p_ctWRe_0p_ctWIm_0p'
p300
I26
sS'cHG_0p_cHGtil_0p_cHj1_0p_cHj3_0p_cHu_0p_cHd_0p_cHQ3_0p_cHtbRe_1p_cHtbIm_0p_cHW_1p_cHWtil_0p_cHB_0p_cHBtil_0p_cHWB_0p_cHWBtil_0p_cHbox_0p_cHDD_0p_cHl3_0p_cll1_0p_cG_0p_cGtil_0p_ctGRe_0p_ctGIm_0p_ctWRe_0p_ctWIm_0p'
p301
I182
sS'cHG_0p_cHGtil_0p_cHj1_0p_cHj3_0p_cHu_0p_cHd_0p_cHQ3_0p_cHtbRe_0p_cHtbIm_1p_cHW_0p_cHWtil_0p_cHB_0p_cHBtil_0p_cHWB_0p_cHWBtil_1p_cHbox_0p_cHDD_0p_cHl3_0p_cll1_0p_cG_0p_cGtil_0p_ctGRe_0p_ctGIm_0p_ctWRe_0p_ctWIm_0p'
p302
I204
sS'cHG_0p_cHGtil_0p_cHj1_0p_cHj3_0p_cHu_0p_cHd_0p_cHQ3_0p_cHtbRe_0p_cHtbIm_0p_cHW_0p_cHWtil_0p_cHB_0p_cHBtil_1p_cHWB_0p_cHWBtil_0p_cHbox_1p_cHDD_0p_cHl3_0p_cll1_0p_cG_0p_cGtil_0p_ctGRe_0p_ctGIm_0p_ctWRe_0p_ctWIm_0p'
p303
I263
sS'cHG_0p_cHGtil_0p_cHj1_0p_cHj3_0p_cHu_0p_cHd_0p_cHQ3_0p_cHtbRe_0p_cHtbIm_0p_cHW_0p_cHWtil_0p_cHB_0p_cHBtil_0p_cHWB_0p_cHWBtil_1p_cHbox_0p_cHDD_0p_cHl3_0p_cll1_0p_cG_1p_cGtil_0p_ctGRe_0p_ctGIm_0p_ctWRe_0p_ctWIm_0p'
p304
I290
sS'cHG_0p_cHGtil_0p_cHj1_0p_cHj3_0p_cHu_1p_cHd_0p_cHQ3_0p_cHtbRe_0p_cHtbIm_0p_cHW_0p_cHWtil_0p_cHB_0p_cHBtil_0p_cHWB_0p_cHWBtil_1p_cHbox_0p_cHDD_0p_cHl3_0p_cll1_0p_cG_0p_cGtil_0p_ctGRe_0p_ctGIm_0p_ctWRe_0p_ctWIm_0p'
p305
I130
sS'cHG_0p_cHGtil_0p_cHj1_0p_cHj3_1p_cHu_0p_cHd_0p_cHQ3_0p_cHtbRe_0p_cHtbIm_0p_cHW_0p_cHWtil_0p_cHB_0p_cHBtil_0p_cHWB_0p_cHWBtil_0p_cHbox_0p_cHDD_0p_cHl3_0p_cll1_0p_cG_0p_cGtil_1p_ctGRe_0p_ctGIm_0p_ctWRe_0p_ctWIm_0p'
p306
I115
sS'cHG_0p_cHGtil_1p_cHj1_0p_cHj3_0p_cHu_0p_cHd_1p_cHQ3_0p_cHtbRe_0p_cHtbIm_0p_cHW_0p_cHWtil_0p_cHB_0p_cHBtil_0p_cHWB_0p_cHWBtil_0p_cHbox_0p_cHDD_0p_cHl3_0p_cll1_0p_cG_0p_cGtil_0p_ctGRe_0p_ctGIm_0p_ctWRe_0p_ctWIm_0p'
p307
I55
sS'cHG_0p_cHGtil_0p_cHj1_0p_cHj3_0p_cHu_0p_cHd_1p_cHQ3_0p_cHtbRe_0p_cHtbIm_0p_cHW_0p_cHWtil_0p_cHB_0p_cHBtil_0p_cHWB_0p_cHWBtil_0p_cHbox_0p_cHDD_0p_cHl3_0p_cll1_0p_cG_0p_cGtil_0p_ctGRe_0p_ctGIm_0p_ctWRe_0p_ctWIm_0p'
p308
I6
sS'cHG_0p_cHGtil_0p_cHj1_0p_cHj3_0p_cHu_0p_cHd_0p_cHQ3_0p_cHtbRe_0p_cHtbIm_0p_cHW_0p_cHWtil_0p_cHB_0p_cHBtil_0p_cHWB_0p_cHWBtil_0p_cHbox_0p_cHDD_0p_cHl3_1p_cll1_0p_cG_0p_cGtil_0p_ctGRe_0p_ctGIm_0p_ctWRe_1p_ctWIm_0p'
p309
I321
sS'cHG_0p_cHGtil_0p_cHj1_0p_cHj3_0p_cHu_1p_cHd_0p_cHQ3_0p_cHtbRe_0p_cHtbIm_0p_cHW_0p_cHWtil_0p_cHB_0p_cHBtil_0p_cHWB_0p_cHWBtil_0p_cHbox_1p_cHDD_0p_cHl3_0p_cll1_0p_cG_0p_cGtil_0p_ctGRe_0p_ctGIm_0p_ctWRe_0p_ctWIm_0p'
p310
I131
sS'cHG_0p_cHGtil_0p_cHj1_0p_cHj3_0p_cHu_0p_cHd_0p_cHQ3_0p_cHtbRe_0p_cHtbIm_0p_cHW_0p_cHWtil_0p_cHB_1p_cHBtil_0p_cHWB_0p_cHWBtil_0p_cHbox_0p_cHDD_0p_cHl3_0p_cll1_0p_cG_0p_cGtil_0p_ctGRe_0p_ctGIm_0p_ctWRe_0p_ctWIm_0p'
p311
I12
sS'cHG_0p_cHGtil_0p_cHj1_0p_cHj3_0p_cHu_1p_cHd_0p_cHQ3_0p_cHtbRe_0p_cHtbIm_0p_cHW_0p_cHWtil_0p_cHB_0p_cHBtil_0p_cHWB_0p_cHWBtil_0p_cHbox_0p_cHDD_0p_cHl3_0p_cll1_0p_cG_0p_cGtil_0p_ctGRe_0p_ctGIm_0p_ctWRe_1p_ctWIm_0p'
p312
I139
sS'cHG_0p_cHGtil_0p_cHj1_0p_cHj3_0p_cHu_0p_cHd_0p_cHQ3_0p_cHtbRe_0p_cHtbIm_0p_cHW_0p_cHWtil_0p_cHB_0p_cHBtil_0p_cHWB_0p_cHWBtil_0p_cHbox_0p_cHDD_0p_cHl3_0p_cll1_1p_cG_0p_cGtil_0p_ctGRe_0p_ctGIm_1p_ctWRe_0p_ctWIm_0p'
p313
I327
sS'cHG_0p_cHGtil_0p_cHj1_0p_cHj3_0p_cHu_0p_cHd_0p_cHQ3_0p_cHtbRe_0p_cHtbIm_0p_cHW_0p_cHWtil_0p_cHB_0p_cHBtil_0p_cHWB_0p_cHWBtil_0p_cHbox_0p_cHDD_0p_cHl3_0p_cll1_0p_cG_0p_cGtil_1p_ctGRe_0p_ctGIm_0p_ctWRe_1p_ctWIm_0p'
p314
I339
sS'cHG_0p_cHGtil_0p_cHj1_0p_cHj3_0p_cHu_0p_cHd_0p_cHQ3_0p_cHtbRe_0p_cHtbIm_0p_cHW_0p_cHWtil_0p_cHB_0p_cHBtil_0p_cHWB_0p_cHWBtil_0p_cHbox_0p_cHDD_0p_cHl3_0p_cll1_0p_cG_0p_cGtil_1p_ctGRe_0p_ctGIm_1p_ctWRe_0p_ctWIm_0p'
p315
I338
sS'cHG_0p_cHGtil_0p_cHj1_0p_cHj3_0p_cHu_0p_cHd_0p_cHQ3_0p_cHtbRe_0p_cHtbIm_1p_cHW_0p_cHWtil_0p_cHB_0p_cHBtil_0p_cHWB_0p_cHWBtil_0p_cHbox_0p_cHDD_0p_cHl3_0p_cll1_1p_cG_0p_cGtil_0p_ctGRe_0p_ctGIm_0p_ctWRe_0p_ctWIm_0p'
p316
I208
sS'cHG_0p_cHGtil_2p_cHj1_0p_cHj3_0p_cHu_0p_cHd_0p_cHQ3_0p_cHtbRe_0p_cHtbIm_0p_cHW_0p_cHWtil_0p_cHB_0p_cHBtil_0p_cHWB_0p_cHWBtil_0p_cHbox_0p_cHDD_0p_cHl3_0p_cll1_0p_cG_0p_cGtil_0p_ctGRe_0p_ctGIm_0p_ctWRe_0p_ctWIm_0p'
p317
I51
sS'cHG_0p_cHGtil_0p_cHj1_0p_cHj3_0p_cHu_1p_cHd_0p_cHQ3_0p_cHtbRe_0p_cHtbIm_0p_cHW_0p_cHWtil_0p_cHB_0p_cHBtil_1p_cHWB_0p_cHWBtil_0p_cHbox_0p_cHDD_0p_cHl3_0p_cll1_0p_cG_0p_cGtil_0p_ctGRe_0p_ctGIm_0p_ctWRe_0p_ctWIm_0p'
p318
I128
sS'cHG_1p_cHGtil_0p_cHj1_0p_cHj3_0p_cHu_0p_cHd_0p_cHQ3_0p_cHtbRe_0p_cHtbIm_0p_cHW_0p_cHWtil_0p_cHB_0p_cHBtil_0p_cHWB_0p_cHWBtil_0p_cHbox_0p_cHDD_0p_cHl3_0p_cll1_0p_cG_0p_cGtil_0p_ctGRe_1p_ctGIm_0p_ctWRe_0p_ctWIm_0p'
p319
I47
sS'cHG_0p_cHGtil_0p_cHj1_0p_cHj3_0p_cHu_0p_cHd_0p_cHQ3_0p_cHtbRe_0p_cHtbIm_0p_cHW_0p_cHWtil_0p_cHB_1p_cHBtil_0p_cHWB_0p_cHWBtil_0p_cHbox_0p_cHDD_0p_cHl3_1p_cll1_0p_cG_0p_cGtil_0p_ctGRe_0p_ctGIm_0p_ctWRe_0p_ctWIm_0p'
p320
I252
sS'cHG_0p_cHGtil_1p_cHj1_0p_cHj3_0p_cHu_1p_cHd_0p_cHQ3_0p_cHtbRe_0p_cHtbIm_0p_cHW_0p_cHWtil_0p_cHB_0p_cHBtil_0p_cHWB_0p_cHWBtil_0p_cHbox_0p_cHDD_0p_cHl3_0p_cll1_0p_cG_0p_cGtil_0p_ctGRe_0p_ctGIm_0p_ctWRe_0p_ctWIm_0p'
p321
I54
sS'cHG_0p_cHGtil_0p_cHj1_0p_cHj3_1p_cHu_0p_cHd_0p_cHQ3_0p_cHtbRe_1p_cHtbIm_0p_cHW_0p_cHWtil_0p_cHB_0p_cHBtil_0p_cHWB_0p_cHWBtil_0p_cHbox_0p_cHDD_0p_cHl3_0p_cll1_0p_cG_0p_cGtil_0p_ctGRe_0p_ctGIm_0p_ctWRe_0p_ctWIm_0p'
p322
I102
sS'cHG_0p_cHGtil_0p_cHj1_0p_cHj3_0p_cHu_0p_cHd_1p_cHQ3_0p_cHtbRe_0p_cHtbIm_1p_cHW_0p_cHWtil_0p_cHB_0p_cHBtil_0p_cHWB_0p_cHWBtil_0p_cHbox_0p_cHDD_0p_cHl3_0p_cll1_0p_cG_0p_cGtil_0p_ctGRe_0p_ctGIm_0p_ctWRe_0p_ctWIm_0p'
p323
I144
sS'cHG_0p_cHGtil_0p_cHj1_1p_cHj3_0p_cHu_0p_cHd_1p_cHQ3_0p_cHtbRe_0p_cHtbIm_0p_cHW_0p_cHWtil_0p_cHB_0p_cHBtil_0p_cHWB_0p_cHWBtil_0p_cHbox_0p_cHDD_0p_cHl3_0p_cll1_0p_cG_0p_cGtil_0p_ctGRe_0p_ctGIm_0p_ctWRe_0p_ctWIm_0p'
p324
I78
sS'cHG_0p_cHGtil_0p_cHj1_0p_cHj3_0p_cHu_0p_cHd_0p_cHQ3_0p_cHtbRe_0p_cHtbIm_0p_cHW_0p_cHWtil_1p_cHB_1p_cHBtil_0p_cHWB_0p_cHWBtil_0p_cHbox_0p_cHDD_0p_cHl3_0p_cll1_0p_cG_0p_cGtil_0p_ctGRe_0p_ctGIm_0p_ctWRe_0p_ctWIm_0p'
p325
I232
sS'cHG_0p_cHGtil_0p_cHj1_0p_cHj3_0p_cHu_0p_cHd_0p_cHQ3_0p_cHtbRe_0p_cHtbIm_0p_cHW_1p_cHWtil_0p_cHB_0p_cHBtil_0p_cHWB_1p_cHWBtil_0p_cHbox_0p_cHDD_0p_cHl3_0p_cll1_0p_cG_0p_cGtil_0p_ctGRe_0p_ctGIm_0p_ctWRe_0p_ctWIm_0p'
p326
I219
sS'cHG_0p_cHGtil_0p_cHj1_0p_cHj3_0p_cHu_0p_cHd_0p_cHQ3_0p_cHtbRe_1p_cHtbIm_0p_cHW_0p_cHWtil_1p_cHB_0p_cHBtil_0p_cHWB_0p_cHWBtil_0p_cHbox_0p_cHDD_0p_cHl3_0p_cll1_0p_cG_0p_cGtil_0p_ctGRe_0p_ctGIm_0p_ctWRe_0p_ctWIm_0p'
p327
I183
sS'cHG_0p_cHGtil_0p_cHj1_0p_cHj3_0p_cHu_0p_cHd_0p_cHQ3_1p_cHtbRe_0p_cHtbIm_0p_cHW_0p_cHWtil_0p_cHB_0p_cHBtil_0p_cHWB_0p_cHWBtil_0p_cHbox_0p_cHDD_0p_cHl3_1p_cll1_0p_cG_0p_cGtil_0p_ctGRe_0p_ctGIm_0p_ctWRe_0p_ctWIm_0p'
p328
I172
sS'cHG_0p_cHGtil_0p_cHj1_0p_cHj3_0p_cHu_0p_cHd_0p_cHQ3_0p_cHtbRe_0p_cHtbIm_0p_cHW_1p_cHWtil_0p_cHB_0p_cHBtil_0p_cHWB_0p_cHWBtil_0p_cHbox_0p_cHDD_0p_cHl3_0p_cll1_0p_cG_1p_cGtil_0p_ctGRe_0p_ctGIm_0p_ctWRe_0p_ctWIm_0p'
p329
I225
sS'cHG_1p_cHGtil_0p_cHj1_0p_cHj3_0p_cHu_0p_cHd_0p_cHQ3_0p_cHtbRe_0p_cHtbIm_0p_cHW_0p_cHWtil_0p_cHB_0p_cHBtil_1p_cHWB_0p_cHWBtil_0p_cHbox_0p_cHDD_0p_cHl3_0p_cll1_0p_cG_0p_cGtil_0p_ctGRe_0p_ctGIm_0p_ctWRe_0p_ctWIm_0p'
p330
I38
sS'cHG_0p_cHGtil_0p_cHj1_0p_cHj3_0p_cHu_0p_cHd_0p_cHQ3_0p_cHtbRe_0p_cHtbIm_0p_cHW_0p_cHWtil_0p_cHB_0p_cHBtil_1p_cHWB_0p_cHWBtil_1p_cHbox_0p_cHDD_0p_cHl3_0p_cll1_0p_cG_0p_cGtil_0p_ctGRe_0p_ctGIm_0p_ctWRe_0p_ctWIm_0p'
p331
I262
sS'cHG_0p_cHGtil_0p_cHj1_0p_cHj3_0p_cHu_0p_cHd_0p_cHQ3_0p_cHtbRe_0p_cHtbIm_0p_cHW_0p_cHWtil_0p_cHB_0p_cHBtil_0p_cHWB_0p_cHWBtil_0p_cHbox_0p_cHDD_0p_cHl3_0p_cll1_1p_cG_0p_cGtil_0p_ctGRe_0p_ctGIm_0p_ctWRe_1p_ctWIm_0p'
p332
I328
sS'cHG_0p_cHGtil_0p_cHj1_0p_cHj3_0p_cHu_0p_cHd_0p_cHQ3_0p_cHtbRe_0p_cHtbIm_0p_cHW_0p_cHWtil_0p_cHB_0p_cHBtil_0p_cHWB_0p_cHWBtil_1p_cHbox_0p_cHDD_0p_cHl3_1p_cll1_0p_cG_0p_cGtil_0p_ctGRe_0p_ctGIm_0p_ctWRe_0p_ctWIm_0p'
p333
I288
sS'cHG_0p_cHGtil_0p_cHj1_0p_cHj3_0p_cHu_0p_cHd_0p_cHQ3_0p_cHtbRe_0p_cHtbIm_1p_cHW_0p_cHWtil_0p_cHB_0p_cHBtil_0p_cHWB_0p_cHWBtil_0p_cHbox_0p_cHDD_0p_cHl3_0p_cll1_0p_cG_0p_cGtil_0p_ctGRe_0p_ctGIm_0p_ctWRe_0p_ctWIm_0p'
p334
I9
sS'cHG_0p_cHGtil_0p_cHj1_0p_cHj3_1p_cHu_0p_cHd_0p_cHQ3_0p_cHtbRe_0p_cHtbIm_0p_cHW_0p_cHWtil_0p_cHB_0p_cHBtil_0p_cHWB_0p_cHWBtil_0p_cHbox_0p_cHDD_0p_cHl3_0p_cll1_0p_cG_0p_cGtil_0p_ctGRe_0p_ctGIm_1p_ctWRe_0p_ctWIm_0p'
p335
I117
sS'cHG_0p_cHGtil_0p_cHj1_0p_cHj3_0p_cHu_0p_cHd_0p_cHQ3_0p_cHtbRe_1p_cHtbIm_0p_cHW_0p_cHWtil_0p_cHB_0p_cHBtil_0p_cHWB_0p_cHWBtil_0p_cHbox_0p_cHDD_0p_cHl3_0p_cll1_1p_cG_0p_cGtil_0p_ctGRe_0p_ctGIm_0p_ctWRe_0p_ctWIm_0p'
p336
I191
sS'cHG_0p_cHGtil_0p_cHj1_0p_cHj3_0p_cHu_0p_cHd_0p_cHQ3_1p_cHtbRe_0p_cHtbIm_0p_cHW_0p_cHWtil_0p_cHB_0p_cHBtil_0p_cHWB_0p_cHWBtil_0p_cHbox_0p_cHDD_0p_cHl3_0p_cll1_0p_cG_1p_cGtil_0p_ctGRe_0p_ctGIm_0p_ctWRe_0p_ctWIm_0p'
p337
I174
sS'cHG_0p_cHGtil_0p_cHj1_0p_cHj3_0p_cHu_1p_cHd_0p_cHQ3_0p_cHtbRe_1p_cHtbIm_0p_cHW_0p_cHWtil_0p_cHB_0p_cHBtil_0p_cHWB_0p_cHWBtil_0p_cHbox_0p_cHDD_0p_cHl3_0p_cll1_0p_cG_0p_cGtil_0p_ctGRe_0p_ctGIm_0p_ctWRe_0p_ctWIm_0p'
p338
I123
sS'cHG_0p_cHGtil_0p_cHj1_0p_cHj3_0p_cHu_1p_cHd_0p_cHQ3_0p_cHtbRe_0p_cHtbIm_0p_cHW_0p_cHWtil_0p_cHB_0p_cHBtil_0p_cHWB_0p_cHWBtil_0p_cHbox_0p_cHDD_1p_cHl3_0p_cll1_0p_cG_0p_cGtil_0p_ctGRe_0p_ctGIm_0p_ctWRe_0p_ctWIm_0p'
p339
I132
sS'cHG_0p_cHGtil_1p_cHj1_0p_cHj3_0p_cHu_0p_cHd_0p_cHQ3_0p_cHtbRe_0p_cHtbIm_0p_cHW_0p_cHWtil_0p_cHB_0p_cHBtil_0p_cHWB_1p_cHWBtil_0p_cHbox_0p_cHDD_0p_cHl3_0p_cll1_0p_cG_0p_cGtil_0p_ctGRe_0p_ctGIm_0p_ctWRe_0p_ctWIm_0p'
p340
I63
sS'cHG_0p_cHGtil_0p_cHj1_0p_cHj3_0p_cHu_0p_cHd_0p_cHQ3_0p_cHtbRe_0p_cHtbIm_1p_cHW_0p_cHWtil_0p_cHB_0p_cHBtil_0p_cHWB_0p_cHWBtil_0p_cHbox_0p_cHDD_0p_cHl3_0p_cll1_0p_cG_0p_cGtil_0p_ctGRe_0p_ctGIm_0p_ctWRe_1p_ctWIm_0p'
p341
I213
sS'cHG_1p_cHGtil_0p_cHj1_0p_cHj3_0p_cHu_0p_cHd_0p_cHQ3_0p_cHtbRe_0p_cHtbIm_0p_cHW_0p_cHWtil_0p_cHB_0p_cHBtil_0p_cHWB_0p_cHWBtil_1p_cHbox_0p_cHDD_0p_cHl3_0p_cll1_0p_cG_0p_cGtil_0p_ctGRe_0p_ctGIm_0p_ctWRe_0p_ctWIm_0p'
p342
I40
sS'cHG_0p_cHGtil_0p_cHj1_0p_cHj3_1p_cHu_0p_cHd_0p_cHQ3_0p_cHtbRe_0p_cHtbIm_0p_cHW_0p_cHWtil_0p_cHB_0p_cHBtil_0p_cHWB_0p_cHWBtil_0p_cHbox_0p_cHDD_0p_cHl3_1p_cll1_0p_cG_0p_cGtil_0p_ctGRe_0p_ctGIm_0p_ctWRe_0p_ctWIm_0p'
p343
I112
sS'cHG_0p_cHGtil_0p_cHj1_0p_cHj3_0p_cHu_0p_cHd_0p_cHQ3_0p_cHtbRe_0p_cHtbIm_0p_cHW_0p_cHWtil_0p_cHB_0p_cHBtil_0p_cHWB_0p_cHWBtil_0p_cHbox_1p_cHDD_0p_cHl3_0p_cll1_1p_cG_0p_cGtil_0p_ctGRe_0p_ctGIm_0p_ctWRe_0p_ctWIm_0p'
p344
I299
sS'cHG_0p_cHGtil_0p_cHj1_0p_cHj3_0p_cHu_0p_cHd_0p_cHQ3_0p_cHtbRe_0p_cHtbIm_0p_cHW_0p_cHWtil_0p_cHB_0p_cHBtil_0p_cHWB_1p_cHWBtil_0p_cHbox_1p_cHDD_0p_cHl3_0p_cll1_0p_cG_0p_cGtil_0p_ctGRe_0p_ctGIm_0p_ctWRe_0p_ctWIm_0p'
p345
I275
sS'cHG_0p_cHGtil_1p_cHj1_1p_cHj3_0p_cHu_0p_cHd_0p_cHQ3_0p_cHtbRe_0p_cHtbIm_0p_cHW_0p_cHWtil_0p_cHB_0p_cHBtil_0p_cHWB_0p_cHWBtil_0p_cHbox_0p_cHDD_0p_cHl3_0p_cll1_0p_cG_0p_cGtil_0p_ctGRe_0p_ctGIm_0p_ctWRe_0p_ctWIm_0p'
p346
I52
sS'cHG_0p_cHGtil_0p_cHj1_0p_cHj3_0p_cHu_0p_cHd_0p_cHQ3_0p_cHtbRe_0p_cHtbIm_0p_cHW_0p_cHWtil_1p_cHB_0p_cHBtil_0p_cHWB_0p_cHWBtil_0p_cHbox_0p_cHDD_0p_cHl3_0p_cll1_0p_cG_0p_cGtil_0p_ctGRe_0p_ctGIm_0p_ctWRe_0p_ctWIm_1p'
p347
I245
sS'cHG_0p_cHGtil_0p_cHj1_0p_cHj3_0p_cHu_0p_cHd_0p_cHQ3_0p_cHtbRe_0p_cHtbIm_0p_cHW_0p_cHWtil_0p_cHB_0p_cHBtil_0p_cHWB_0p_cHWBtil_0p_cHbox_0p_cHDD_0p_cHl3_0p_cll1_0p_cG_0p_cGtil_1p_ctGRe_1p_ctGIm_0p_ctWRe_0p_ctWIm_0p'
p348
I337
sS'cHG_0p_cHGtil_0p_cHj1_0p_cHj3_0p_cHu_0p_cHd_0p_cHQ3_0p_cHtbRe_0p_cHtbIm_0p_cHW_0p_cHWtil_1p_cHB_0p_cHBtil_0p_cHWB_0p_cHWBtil_0p_cHbox_0p_cHDD_0p_cHl3_0p_cll1_1p_cG_0p_cGtil_0p_ctGRe_0p_ctGIm_0p_ctWRe_0p_ctWIm_0p'
p349
I239
sS'cHG_0p_cHGtil_0p_cHj1_0p_cHj3_0p_cHu_0p_cHd_0p_cHQ3_0p_cHtbRe_0p_cHtbIm_0p_cHW_0p_cHWtil_0p_cHB_0p_cHBtil_0p_cHWB_1p_cHWBtil_1p_cHbox_0p_cHDD_0p_cHl3_0p_cll1_0p_cG_0p_cGtil_0p_ctGRe_0p_ctGIm_0p_ctWRe_0p_ctWIm_0p'
p350
I274
sS'cHG_0p_cHGtil_0p_cHj1_0p_cHj3_0p_cHu_0p_cHd_0p_cHQ3_0p_cHtbRe_0p_cHtbIm_0p_cHW_0p_cHWtil_0p_cHB_0p_cHBtil_0p_cHWB_0p_cHWBtil_0p_cHbox_0p_cHDD_0p_cHl3_0p_cll1_0p_cG_1p_cGtil_1p_ctGRe_0p_ctGIm_0p_ctWRe_0p_ctWIm_0p'
p351
I331
sS'cHG_0p_cHGtil_0p_cHj1_0p_cHj3_0p_cHu_0p_cHd_0p_cHQ3_0p_cHtbRe_0p_cHtbIm_0p_cHW_0p_cHWtil_0p_cHB_0p_cHBtil_0p_cHWB_0p_cHWBtil_0p_cHbox_0p_cHDD_0p_cHl3_0p_cll1_0p_cG_0p_cGtil_0p_ctGRe_0p_ctGIm_1p_ctWRe_0p_ctWIm_0p'
p352
I23
sS'cHG_0p_cHGtil_0p_cHj1_0p_cHj3_0p_cHu_0p_cHd_0p_cHQ3_0p_cHtbRe_1p_cHtbIm_0p_cHW_0p_cHWtil_0p_cHB_0p_cHBtil_0p_cHWB_0p_cHWBtil_0p_cHbox_0p_cHDD_0p_cHl3_0p_cll1_0p_cG_0p_cGtil_0p_ctGRe_0p_ctGIm_0p_ctWRe_1p_ctWIm_0p'
p353
I196
sS'cHG_0p_cHGtil_0p_cHj1_0p_cHj3_0p_cHu_0p_cHd_0p_cHQ3_0p_cHtbRe_0p_cHtbIm_0p_cHW_0p_cHWtil_0p_cHB_0p_cHBtil_0p_cHWB_0p_cHWBtil_0p_cHbox_0p_cHDD_0p_cHl3_0p_cll1_0p_cG_1p_cGtil_0p_ctGRe_0p_ctGIm_0p_ctWRe_0p_ctWIm_0p'
p354
I20
sS'cHG_0p_cHGtil_0p_cHj1_0p_cHj3_0p_cHu_0p_cHd_0p_cHQ3_0p_cHtbRe_0p_cHtbIm_1p_cHW_0p_cHWtil_0p_cHB_0p_cHBtil_0p_cHWB_0p_cHWBtil_0p_cHbox_1p_cHDD_0p_cHl3_0p_cll1_0p_cG_0p_cGtil_0p_ctGRe_0p_ctGIm_0p_ctWRe_0p_ctWIm_0p'
p355
I205
ssS'order'
p356
(dp357
g356
I2
ss.